

Microchip MPLAB XC8 Assembler V2.32 build 20210201212658 
                                                                                               Sun Feb 28 00:48:11 2021

Microchip MPLAB XC8 C Compiler v2.32 (Free license) build 20210201212658 Og1 
     1                           	processor	16F1827
     2                           	pagewidth 120
     3                           	opt	flic
     4                           	psect	cinit,global,class=CODE,merge=1,delta=2
     5                           	psect	cstackCOMMON,global,class=COMMON,space=1,delta=1,noexec
     6                           	psect	cstackBANK0,global,class=BANK0,space=1,delta=1,noexec
     7                           	psect	maintext,global,class=CODE,merge=1,split=1,delta=2
     8                           	psect	text1,local,class=CODE,merge=1,delta=2
     9                           	psect	text2,local,class=CODE,merge=1,delta=2
    10                           	psect	text3,local,class=CODE,merge=1,delta=2,group=1
    11                           	psect	text4,local,class=CODE,merge=1,delta=2,group=1
    12                           	psect	text5,local,class=CODE,merge=1,delta=2
    13                           	psect	text6,local,class=CODE,merge=1,delta=2
    14                           	psect	text7,local,class=CODE,merge=1,delta=2
    15                           	psect	text8,local,class=CODE,merge=1,delta=2
    16                           	psect	text9,local,class=CODE,merge=1,delta=2
    17                           	psect	text10,local,class=CODE,merge=1,delta=2
    18                           	psect	text11,local,class=CODE,merge=1,delta=2
    19                           	psect	text12,local,class=CODE,merge=1,delta=2
    20                           	psect	text13,local,class=CODE,merge=1,delta=2
    21                           	psect	text14,local,class=CODE,merge=1,delta=2,group=1
    22                           	psect	text15,local,class=CODE,merge=1,delta=2
    23                           	psect	text16,local,class=CODE,merge=1,delta=2
    24                           	psect	text17,local,class=CODE,merge=1,delta=2
    25                           	psect	text18,local,class=CODE,merge=1,delta=2
    26                           	psect	config,global,abs,ovrld,class=CONFIG,space=4,delta=2,noexec
    27                           	dabs	1,0x7E,2
    28  0000                     
    29                           ; Version 2.32
    30                           ; Generated 02/02/2021 GMT
    31                           ; 
    32                           ; Copyright © 2021, Microchip Technology Inc. and its subsidiaries ("Microchip")
    33                           ; All rights reserved.
    34                           ; 
    35                           ; This software is developed by Microchip Technology Inc. and its subsidiaries ("Microch
      +                          ip").
    36                           ; 
    37                           ; Redistribution and use in source and binary forms, with or without modification, are
    38                           ; permitted provided that the following conditions are met:
    39                           ; 
    40                           ;     1. Redistributions of source code must retain the above copyright notice, this lis
      +                          t of
    41                           ;        conditions and the following disclaimer.
    42                           ; 
    43                           ;     2. Redistributions in binary form must reproduce the above copyright notice, this 
      +                          list
    44                           ;        of conditions and the following disclaimer in the documentation and/or other
    45                           ;        materials provided with the distribution. Publication is not required when
    46                           ;        this file is used in an embedded application.
    47                           ; 
    48                           ;     3. Microchip's name may not be used to endorse or promote products derived from th
      +                          is
    49                           ;        software without specific prior written permission.
    50                           ; 
    51                           ; THIS SOFTWARE IS PROVIDED BY MICROCHIP "AS IS" AND ANY EXPRESS OR IMPLIED WARRANTIES,
    52                           ; INCLUDING, BUT NOT LIMITED TO, THE IMPLIED WARRANTIES OF MERCHANTABILITY AND FITNESS F
      +                          OR
    53                           ; PURPOSE ARE DISCLAIMED.  IN NO EVENT SHALL MICROCHIP BE LIABLE FOR ANY DIRECT, INDIREC
      +                          T,
    54                           ; INCIDENTAL, SPECIAL, EXEMPLARY, OR CONSEQUENTIAL DAMAGES (INCLUDING BUT NOT LIMITED TO
    55                           ; PROCUREMENT OF SUBSTITUTE GOODS OR SERVICES; LOSS OF USE, DATA OR PROFITS; OR BUSINESS
    56                           ; INTERRUPTION) HOWSOEVER CAUSED AND ON ANY THEORY OF LIABILITY, WHETHER IN CONTRACT, ST
      +                          RICT
    57                           ; LIABILITY, OR TORT (INCLUDING NEGLIGENCE OR OTHERWISE) ARISING IN ANY WAY OUT OF THE U
      +                          SE OF
    58                           ; THIS SOFTWARE, EVEN IF ADVISED OF THE POSSIBILITY OF SUCH DAMAGE.
    59                           ; 
    60                           ; 
    61                           ; Code-generator required, PIC16F1827 Definitions
    62                           ; 
    63                           ; SFR Addresses
    64  0000                     	;# 
    65  0001                     	;# 
    66  0002                     	;# 
    67  0003                     	;# 
    68  0004                     	;# 
    69  0005                     	;# 
    70  0006                     	;# 
    71  0007                     	;# 
    72  0008                     	;# 
    73  0009                     	;# 
    74  000A                     	;# 
    75  000B                     	;# 
    76  000C                     	;# 
    77  000D                     	;# 
    78  0011                     	;# 
    79  0012                     	;# 
    80  0013                     	;# 
    81  0014                     	;# 
    82  0015                     	;# 
    83  0016                     	;# 
    84  0016                     	;# 
    85  0017                     	;# 
    86  0018                     	;# 
    87  0019                     	;# 
    88  001A                     	;# 
    89  001B                     	;# 
    90  001C                     	;# 
    91  001E                     	;# 
    92  001F                     	;# 
    93  008C                     	;# 
    94  008D                     	;# 
    95  0091                     	;# 
    96  0092                     	;# 
    97  0093                     	;# 
    98  0094                     	;# 
    99  0095                     	;# 
   100  0096                     	;# 
   101  0097                     	;# 
   102  0098                     	;# 
   103  0099                     	;# 
   104  009A                     	;# 
   105  009B                     	;# 
   106  009B                     	;# 
   107  009C                     	;# 
   108  009D                     	;# 
   109  009E                     	;# 
   110  010C                     	;# 
   111  010D                     	;# 
   112  0111                     	;# 
   113  0112                     	;# 
   114  0113                     	;# 
   115  0114                     	;# 
   116  0115                     	;# 
   117  0116                     	;# 
   118  0117                     	;# 
   119  0118                     	;# 
   120  0119                     	;# 
   121  011A                     	;# 
   122  011B                     	;# 
   123  011D                     	;# 
   124  011E                     	;# 
   125  018C                     	;# 
   126  018D                     	;# 
   127  0191                     	;# 
   128  0191                     	;# 
   129  0192                     	;# 
   130  0193                     	;# 
   131  0193                     	;# 
   132  0193                     	;# 
   133  0194                     	;# 
   134  0195                     	;# 
   135  0196                     	;# 
   136  0199                     	;# 
   137  019A                     	;# 
   138  019B                     	;# 
   139  019B                     	;# 
   140  019B                     	;# 
   141  019B                     	;# 
   142  019C                     	;# 
   143  019C                     	;# 
   144  019D                     	;# 
   145  019E                     	;# 
   146  019F                     	;# 
   147  020C                     	;# 
   148  020D                     	;# 
   149  0211                     	;# 
   150  0211                     	;# 
   151  0212                     	;# 
   152  0212                     	;# 
   153  0213                     	;# 
   154  0213                     	;# 
   155  0214                     	;# 
   156  0214                     	;# 
   157  0215                     	;# 
   158  0215                     	;# 
   159  0215                     	;# 
   160  0216                     	;# 
   161  0216                     	;# 
   162  0217                     	;# 
   163  0217                     	;# 
   164  0219                     	;# 
   165  021A                     	;# 
   166  021B                     	;# 
   167  021C                     	;# 
   168  021D                     	;# 
   169  021E                     	;# 
   170  021F                     	;# 
   171  0291                     	;# 
   172  0291                     	;# 
   173  0292                     	;# 
   174  0293                     	;# 
   175  0294                     	;# 
   176  0295                     	;# 
   177  0295                     	;# 
   178  0296                     	;# 
   179  0298                     	;# 
   180  0298                     	;# 
   181  0299                     	;# 
   182  029A                     	;# 
   183  029B                     	;# 
   184  029C                     	;# 
   185  029C                     	;# 
   186  029D                     	;# 
   187  029E                     	;# 
   188  029E                     	;# 
   189  0311                     	;# 
   190  0311                     	;# 
   191  0312                     	;# 
   192  0313                     	;# 
   193  0318                     	;# 
   194  0318                     	;# 
   195  0319                     	;# 
   196  031A                     	;# 
   197  0394                     	;# 
   198  0395                     	;# 
   199  0396                     	;# 
   200  039A                     	;# 
   201  039C                     	;# 
   202  039D                     	;# 
   203  039E                     	;# 
   204  039F                     	;# 
   205  0415                     	;# 
   206  0416                     	;# 
   207  0417                     	;# 
   208  041C                     	;# 
   209  041D                     	;# 
   210  041E                     	;# 
   211  0FE4                     	;# 
   212  0FE5                     	;# 
   213  0FE6                     	;# 
   214  0FE7                     	;# 
   215  0FE8                     	;# 
   216  0FE9                     	;# 
   217  0FEA                     	;# 
   218  0FEB                     	;# 
   219  0FED                     	;# 
   220  0FEE                     	;# 
   221  0FEF                     	;# 
   222  0000                     	;# 
   223  0001                     	;# 
   224  0002                     	;# 
   225  0003                     	;# 
   226  0004                     	;# 
   227  0005                     	;# 
   228  0006                     	;# 
   229  0007                     	;# 
   230  0008                     	;# 
   231  0009                     	;# 
   232  000A                     	;# 
   233  000B                     	;# 
   234  000C                     	;# 
   235  000D                     	;# 
   236  0011                     	;# 
   237  0012                     	;# 
   238  0013                     	;# 
   239  0014                     	;# 
   240  0015                     	;# 
   241  0016                     	;# 
   242  0016                     	;# 
   243  0017                     	;# 
   244  0018                     	;# 
   245  0019                     	;# 
   246  001A                     	;# 
   247  001B                     	;# 
   248  001C                     	;# 
   249  001E                     	;# 
   250  001F                     	;# 
   251  008C                     	;# 
   252  008D                     	;# 
   253  0091                     	;# 
   254  0092                     	;# 
   255  0093                     	;# 
   256  0094                     	;# 
   257  0095                     	;# 
   258  0096                     	;# 
   259  0097                     	;# 
   260  0098                     	;# 
   261  0099                     	;# 
   262  009A                     	;# 
   263  009B                     	;# 
   264  009B                     	;# 
   265  009C                     	;# 
   266  009D                     	;# 
   267  009E                     	;# 
   268  010C                     	;# 
   269  010D                     	;# 
   270  0111                     	;# 
   271  0112                     	;# 
   272  0113                     	;# 
   273  0114                     	;# 
   274  0115                     	;# 
   275  0116                     	;# 
   276  0117                     	;# 
   277  0118                     	;# 
   278  0119                     	;# 
   279  011A                     	;# 
   280  011B                     	;# 
   281  011D                     	;# 
   282  011E                     	;# 
   283  018C                     	;# 
   284  018D                     	;# 
   285  0191                     	;# 
   286  0191                     	;# 
   287  0192                     	;# 
   288  0193                     	;# 
   289  0193                     	;# 
   290  0193                     	;# 
   291  0194                     	;# 
   292  0195                     	;# 
   293  0196                     	;# 
   294  0199                     	;# 
   295  019A                     	;# 
   296  019B                     	;# 
   297  019B                     	;# 
   298  019B                     	;# 
   299  019B                     	;# 
   300  019C                     	;# 
   301  019C                     	;# 
   302  019D                     	;# 
   303  019E                     	;# 
   304  019F                     	;# 
   305  020C                     	;# 
   306  020D                     	;# 
   307  0211                     	;# 
   308  0211                     	;# 
   309  0212                     	;# 
   310  0212                     	;# 
   311  0213                     	;# 
   312  0213                     	;# 
   313  0214                     	;# 
   314  0214                     	;# 
   315  0215                     	;# 
   316  0215                     	;# 
   317  0215                     	;# 
   318  0216                     	;# 
   319  0216                     	;# 
   320  0217                     	;# 
   321  0217                     	;# 
   322  0219                     	;# 
   323  021A                     	;# 
   324  021B                     	;# 
   325  021C                     	;# 
   326  021D                     	;# 
   327  021E                     	;# 
   328  021F                     	;# 
   329  0291                     	;# 
   330  0291                     	;# 
   331  0292                     	;# 
   332  0293                     	;# 
   333  0294                     	;# 
   334  0295                     	;# 
   335  0295                     	;# 
   336  0296                     	;# 
   337  0298                     	;# 
   338  0298                     	;# 
   339  0299                     	;# 
   340  029A                     	;# 
   341  029B                     	;# 
   342  029C                     	;# 
   343  029C                     	;# 
   344  029D                     	;# 
   345  029E                     	;# 
   346  029E                     	;# 
   347  0311                     	;# 
   348  0311                     	;# 
   349  0312                     	;# 
   350  0313                     	;# 
   351  0318                     	;# 
   352  0318                     	;# 
   353  0319                     	;# 
   354  031A                     	;# 
   355  0394                     	;# 
   356  0395                     	;# 
   357  0396                     	;# 
   358  039A                     	;# 
   359  039C                     	;# 
   360  039D                     	;# 
   361  039E                     	;# 
   362  039F                     	;# 
   363  0415                     	;# 
   364  0416                     	;# 
   365  0417                     	;# 
   366  041C                     	;# 
   367  041D                     	;# 
   368  041E                     	;# 
   369  0FE4                     	;# 
   370  0FE5                     	;# 
   371  0FE6                     	;# 
   372  0FE7                     	;# 
   373  0FE8                     	;# 
   374  0FE9                     	;# 
   375  0FEA                     	;# 
   376  0FEB                     	;# 
   377  0FED                     	;# 
   378  0FEE                     	;# 
   379  0FEF                     	;# 
   380  0000                     	;# 
   381  0001                     	;# 
   382  0002                     	;# 
   383  0003                     	;# 
   384  0004                     	;# 
   385  0005                     	;# 
   386  0006                     	;# 
   387  0007                     	;# 
   388  0008                     	;# 
   389  0009                     	;# 
   390  000A                     	;# 
   391  000B                     	;# 
   392  000C                     	;# 
   393  000D                     	;# 
   394  0011                     	;# 
   395  0012                     	;# 
   396  0013                     	;# 
   397  0014                     	;# 
   398  0015                     	;# 
   399  0016                     	;# 
   400  0016                     	;# 
   401  0017                     	;# 
   402  0018                     	;# 
   403  0019                     	;# 
   404  001A                     	;# 
   405  001B                     	;# 
   406  001C                     	;# 
   407  001E                     	;# 
   408  001F                     	;# 
   409  008C                     	;# 
   410  008D                     	;# 
   411  0091                     	;# 
   412  0092                     	;# 
   413  0093                     	;# 
   414  0094                     	;# 
   415  0095                     	;# 
   416  0096                     	;# 
   417  0097                     	;# 
   418  0098                     	;# 
   419  0099                     	;# 
   420  009A                     	;# 
   421  009B                     	;# 
   422  009B                     	;# 
   423  009C                     	;# 
   424  009D                     	;# 
   425  009E                     	;# 
   426  010C                     	;# 
   427  010D                     	;# 
   428  0111                     	;# 
   429  0112                     	;# 
   430  0113                     	;# 
   431  0114                     	;# 
   432  0115                     	;# 
   433  0116                     	;# 
   434  0117                     	;# 
   435  0118                     	;# 
   436  0119                     	;# 
   437  011A                     	;# 
   438  011B                     	;# 
   439  011D                     	;# 
   440  011E                     	;# 
   441  018C                     	;# 
   442  018D                     	;# 
   443  0191                     	;# 
   444  0191                     	;# 
   445  0192                     	;# 
   446  0193                     	;# 
   447  0193                     	;# 
   448  0193                     	;# 
   449  0194                     	;# 
   450  0195                     	;# 
   451  0196                     	;# 
   452  0199                     	;# 
   453  019A                     	;# 
   454  019B                     	;# 
   455  019B                     	;# 
   456  019B                     	;# 
   457  019B                     	;# 
   458  019C                     	;# 
   459  019C                     	;# 
   460  019D                     	;# 
   461  019E                     	;# 
   462  019F                     	;# 
   463  020C                     	;# 
   464  020D                     	;# 
   465  0211                     	;# 
   466  0211                     	;# 
   467  0212                     	;# 
   468  0212                     	;# 
   469  0213                     	;# 
   470  0213                     	;# 
   471  0214                     	;# 
   472  0214                     	;# 
   473  0215                     	;# 
   474  0215                     	;# 
   475  0215                     	;# 
   476  0216                     	;# 
   477  0216                     	;# 
   478  0217                     	;# 
   479  0217                     	;# 
   480  0219                     	;# 
   481  021A                     	;# 
   482  021B                     	;# 
   483  021C                     	;# 
   484  021D                     	;# 
   485  021E                     	;# 
   486  021F                     	;# 
   487  0291                     	;# 
   488  0291                     	;# 
   489  0292                     	;# 
   490  0293                     	;# 
   491  0294                     	;# 
   492  0295                     	;# 
   493  0295                     	;# 
   494  0296                     	;# 
   495  0298                     	;# 
   496  0298                     	;# 
   497  0299                     	;# 
   498  029A                     	;# 
   499  029B                     	;# 
   500  029C                     	;# 
   501  029C                     	;# 
   502  029D                     	;# 
   503  029E                     	;# 
   504  029E                     	;# 
   505  0311                     	;# 
   506  0311                     	;# 
   507  0312                     	;# 
   508  0313                     	;# 
   509  0318                     	;# 
   510  0318                     	;# 
   511  0319                     	;# 
   512  031A                     	;# 
   513  0394                     	;# 
   514  0395                     	;# 
   515  0396                     	;# 
   516  039A                     	;# 
   517  039C                     	;# 
   518  039D                     	;# 
   519  039E                     	;# 
   520  039F                     	;# 
   521  0415                     	;# 
   522  0416                     	;# 
   523  0417                     	;# 
   524  041C                     	;# 
   525  041D                     	;# 
   526  041E                     	;# 
   527  0FE4                     	;# 
   528  0FE5                     	;# 
   529  0FE6                     	;# 
   530  0FE7                     	;# 
   531  0FE8                     	;# 
   532  0FE9                     	;# 
   533  0FEA                     	;# 
   534  0FEB                     	;# 
   535  0FED                     	;# 
   536  0FEE                     	;# 
   537  0FEF                     	;# 
   538  0000                     	;# 
   539  0001                     	;# 
   540  0002                     	;# 
   541  0003                     	;# 
   542  0004                     	;# 
   543  0005                     	;# 
   544  0006                     	;# 
   545  0007                     	;# 
   546  0008                     	;# 
   547  0009                     	;# 
   548  000A                     	;# 
   549  000B                     	;# 
   550  000C                     	;# 
   551  000D                     	;# 
   552  0011                     	;# 
   553  0012                     	;# 
   554  0013                     	;# 
   555  0014                     	;# 
   556  0015                     	;# 
   557  0016                     	;# 
   558  0016                     	;# 
   559  0017                     	;# 
   560  0018                     	;# 
   561  0019                     	;# 
   562  001A                     	;# 
   563  001B                     	;# 
   564  001C                     	;# 
   565  001E                     	;# 
   566  001F                     	;# 
   567  008C                     	;# 
   568  008D                     	;# 
   569  0091                     	;# 
   570  0092                     	;# 
   571  0093                     	;# 
   572  0094                     	;# 
   573  0095                     	;# 
   574  0096                     	;# 
   575  0097                     	;# 
   576  0098                     	;# 
   577  0099                     	;# 
   578  009A                     	;# 
   579  009B                     	;# 
   580  009B                     	;# 
   581  009C                     	;# 
   582  009D                     	;# 
   583  009E                     	;# 
   584  010C                     	;# 
   585  010D                     	;# 
   586  0111                     	;# 
   587  0112                     	;# 
   588  0113                     	;# 
   589  0114                     	;# 
   590  0115                     	;# 
   591  0116                     	;# 
   592  0117                     	;# 
   593  0118                     	;# 
   594  0119                     	;# 
   595  011A                     	;# 
   596  011B                     	;# 
   597  011D                     	;# 
   598  011E                     	;# 
   599  018C                     	;# 
   600  018D                     	;# 
   601  0191                     	;# 
   602  0191                     	;# 
   603  0192                     	;# 
   604  0193                     	;# 
   605  0193                     	;# 
   606  0193                     	;# 
   607  0194                     	;# 
   608  0195                     	;# 
   609  0196                     	;# 
   610  0199                     	;# 
   611  019A                     	;# 
   612  019B                     	;# 
   613  019B                     	;# 
   614  019B                     	;# 
   615  019B                     	;# 
   616  019C                     	;# 
   617  019C                     	;# 
   618  019D                     	;# 
   619  019E                     	;# 
   620  019F                     	;# 
   621  020C                     	;# 
   622  020D                     	;# 
   623  0211                     	;# 
   624  0211                     	;# 
   625  0212                     	;# 
   626  0212                     	;# 
   627  0213                     	;# 
   628  0213                     	;# 
   629  0214                     	;# 
   630  0214                     	;# 
   631  0215                     	;# 
   632  0215                     	;# 
   633  0215                     	;# 
   634  0216                     	;# 
   635  0216                     	;# 
   636  0217                     	;# 
   637  0217                     	;# 
   638  0219                     	;# 
   639  021A                     	;# 
   640  021B                     	;# 
   641  021C                     	;# 
   642  021D                     	;# 
   643  021E                     	;# 
   644  021F                     	;# 
   645  0291                     	;# 
   646  0291                     	;# 
   647  0292                     	;# 
   648  0293                     	;# 
   649  0294                     	;# 
   650  0295                     	;# 
   651  0295                     	;# 
   652  0296                     	;# 
   653  0298                     	;# 
   654  0298                     	;# 
   655  0299                     	;# 
   656  029A                     	;# 
   657  029B                     	;# 
   658  029C                     	;# 
   659  029C                     	;# 
   660  029D                     	;# 
   661  029E                     	;# 
   662  029E                     	;# 
   663  0311                     	;# 
   664  0311                     	;# 
   665  0312                     	;# 
   666  0313                     	;# 
   667  0318                     	;# 
   668  0318                     	;# 
   669  0319                     	;# 
   670  031A                     	;# 
   671  0394                     	;# 
   672  0395                     	;# 
   673  0396                     	;# 
   674  039A                     	;# 
   675  039C                     	;# 
   676  039D                     	;# 
   677  039E                     	;# 
   678  039F                     	;# 
   679  0415                     	;# 
   680  0416                     	;# 
   681  0417                     	;# 
   682  041C                     	;# 
   683  041D                     	;# 
   684  041E                     	;# 
   685  0FE4                     	;# 
   686  0FE5                     	;# 
   687  0FE6                     	;# 
   688  0FE7                     	;# 
   689  0FE8                     	;# 
   690  0FE9                     	;# 
   691  0FEA                     	;# 
   692  0FEB                     	;# 
   693  0FED                     	;# 
   694  0FEE                     	;# 
   695  0FEF                     	;# 
   696  0000                     	;# 
   697  0001                     	;# 
   698  0002                     	;# 
   699  0003                     	;# 
   700  0004                     	;# 
   701  0005                     	;# 
   702  0006                     	;# 
   703  0007                     	;# 
   704  0008                     	;# 
   705  0009                     	;# 
   706  000A                     	;# 
   707  000B                     	;# 
   708  000C                     	;# 
   709  000D                     	;# 
   710  0011                     	;# 
   711  0012                     	;# 
   712  0013                     	;# 
   713  0014                     	;# 
   714  0015                     	;# 
   715  0016                     	;# 
   716  0016                     	;# 
   717  0017                     	;# 
   718  0018                     	;# 
   719  0019                     	;# 
   720  001A                     	;# 
   721  001B                     	;# 
   722  001C                     	;# 
   723  001E                     	;# 
   724  001F                     	;# 
   725  008C                     	;# 
   726  008D                     	;# 
   727  0091                     	;# 
   728  0092                     	;# 
   729  0093                     	;# 
   730  0094                     	;# 
   731  0095                     	;# 
   732  0096                     	;# 
   733  0097                     	;# 
   734  0098                     	;# 
   735  0099                     	;# 
   736  009A                     	;# 
   737  009B                     	;# 
   738  009B                     	;# 
   739  009C                     	;# 
   740  009D                     	;# 
   741  009E                     	;# 
   742  010C                     	;# 
   743  010D                     	;# 
   744  0111                     	;# 
   745  0112                     	;# 
   746  0113                     	;# 
   747  0114                     	;# 
   748  0115                     	;# 
   749  0116                     	;# 
   750  0117                     	;# 
   751  0118                     	;# 
   752  0119                     	;# 
   753  011A                     	;# 
   754  011B                     	;# 
   755  011D                     	;# 
   756  011E                     	;# 
   757  018C                     	;# 
   758  018D                     	;# 
   759  0191                     	;# 
   760  0191                     	;# 
   761  0192                     	;# 
   762  0193                     	;# 
   763  0193                     	;# 
   764  0193                     	;# 
   765  0194                     	;# 
   766  0195                     	;# 
   767  0196                     	;# 
   768  0199                     	;# 
   769  019A                     	;# 
   770  019B                     	;# 
   771  019B                     	;# 
   772  019B                     	;# 
   773  019B                     	;# 
   774  019C                     	;# 
   775  019C                     	;# 
   776  019D                     	;# 
   777  019E                     	;# 
   778  019F                     	;# 
   779  020C                     	;# 
   780  020D                     	;# 
   781  0211                     	;# 
   782  0211                     	;# 
   783  0212                     	;# 
   784  0212                     	;# 
   785  0213                     	;# 
   786  0213                     	;# 
   787  0214                     	;# 
   788  0214                     	;# 
   789  0215                     	;# 
   790  0215                     	;# 
   791  0215                     	;# 
   792  0216                     	;# 
   793  0216                     	;# 
   794  0217                     	;# 
   795  0217                     	;# 
   796  0219                     	;# 
   797  021A                     	;# 
   798  021B                     	;# 
   799  021C                     	;# 
   800  021D                     	;# 
   801  021E                     	;# 
   802  021F                     	;# 
   803  0291                     	;# 
   804  0291                     	;# 
   805  0292                     	;# 
   806  0293                     	;# 
   807  0294                     	;# 
   808  0295                     	;# 
   809  0295                     	;# 
   810  0296                     	;# 
   811  0298                     	;# 
   812  0298                     	;# 
   813  0299                     	;# 
   814  029A                     	;# 
   815  029B                     	;# 
   816  029C                     	;# 
   817  029C                     	;# 
   818  029D                     	;# 
   819  029E                     	;# 
   820  029E                     	;# 
   821  0311                     	;# 
   822  0311                     	;# 
   823  0312                     	;# 
   824  0313                     	;# 
   825  0318                     	;# 
   826  0318                     	;# 
   827  0319                     	;# 
   828  031A                     	;# 
   829  0394                     	;# 
   830  0395                     	;# 
   831  0396                     	;# 
   832  039A                     	;# 
   833  039C                     	;# 
   834  039D                     	;# 
   835  039E                     	;# 
   836  039F                     	;# 
   837  0415                     	;# 
   838  0416                     	;# 
   839  0417                     	;# 
   840  041C                     	;# 
   841  041D                     	;# 
   842  041E                     	;# 
   843  0FE4                     	;# 
   844  0FE5                     	;# 
   845  0FE6                     	;# 
   846  0FE7                     	;# 
   847  0FE8                     	;# 
   848  0FE9                     	;# 
   849  0FEA                     	;# 
   850  0FEB                     	;# 
   851  0FED                     	;# 
   852  0FEE                     	;# 
   853  0FEF                     	;# 
   854  0000                     	;# 
   855  0001                     	;# 
   856  0002                     	;# 
   857  0003                     	;# 
   858  0004                     	;# 
   859  0005                     	;# 
   860  0006                     	;# 
   861  0007                     	;# 
   862  0008                     	;# 
   863  0009                     	;# 
   864  000A                     	;# 
   865  000B                     	;# 
   866  000C                     	;# 
   867  000D                     	;# 
   868  0011                     	;# 
   869  0012                     	;# 
   870  0013                     	;# 
   871  0014                     	;# 
   872  0015                     	;# 
   873  0016                     	;# 
   874  0016                     	;# 
   875  0017                     	;# 
   876  0018                     	;# 
   877  0019                     	;# 
   878  001A                     	;# 
   879  001B                     	;# 
   880  001C                     	;# 
   881  001E                     	;# 
   882  001F                     	;# 
   883  008C                     	;# 
   884  008D                     	;# 
   885  0091                     	;# 
   886  0092                     	;# 
   887  0093                     	;# 
   888  0094                     	;# 
   889  0095                     	;# 
   890  0096                     	;# 
   891  0097                     	;# 
   892  0098                     	;# 
   893  0099                     	;# 
   894  009A                     	;# 
   895  009B                     	;# 
   896  009B                     	;# 
   897  009C                     	;# 
   898  009D                     	;# 
   899  009E                     	;# 
   900  010C                     	;# 
   901  010D                     	;# 
   902  0111                     	;# 
   903  0112                     	;# 
   904  0113                     	;# 
   905  0114                     	;# 
   906  0115                     	;# 
   907  0116                     	;# 
   908  0117                     	;# 
   909  0118                     	;# 
   910  0119                     	;# 
   911  011A                     	;# 
   912  011B                     	;# 
   913  011D                     	;# 
   914  011E                     	;# 
   915  018C                     	;# 
   916  018D                     	;# 
   917  0191                     	;# 
   918  0191                     	;# 
   919  0192                     	;# 
   920  0193                     	;# 
   921  0193                     	;# 
   922  0193                     	;# 
   923  0194                     	;# 
   924  0195                     	;# 
   925  0196                     	;# 
   926  0199                     	;# 
   927  019A                     	;# 
   928  019B                     	;# 
   929  019B                     	;# 
   930  019B                     	;# 
   931  019B                     	;# 
   932  019C                     	;# 
   933  019C                     	;# 
   934  019D                     	;# 
   935  019E                     	;# 
   936  019F                     	;# 
   937  020C                     	;# 
   938  020D                     	;# 
   939  0211                     	;# 
   940  0211                     	;# 
   941  0212                     	;# 
   942  0212                     	;# 
   943  0213                     	;# 
   944  0213                     	;# 
   945  0214                     	;# 
   946  0214                     	;# 
   947  0215                     	;# 
   948  0215                     	;# 
   949  0215                     	;# 
   950  0216                     	;# 
   951  0216                     	;# 
   952  0217                     	;# 
   953  0217                     	;# 
   954  0219                     	;# 
   955  021A                     	;# 
   956  021B                     	;# 
   957  021C                     	;# 
   958  021D                     	;# 
   959  021E                     	;# 
   960  021F                     	;# 
   961  0291                     	;# 
   962  0291                     	;# 
   963  0292                     	;# 
   964  0293                     	;# 
   965  0294                     	;# 
   966  0295                     	;# 
   967  0295                     	;# 
   968  0296                     	;# 
   969  0298                     	;# 
   970  0298                     	;# 
   971  0299                     	;# 
   972  029A                     	;# 
   973  029B                     	;# 
   974  029C                     	;# 
   975  029C                     	;# 
   976  029D                     	;# 
   977  029E                     	;# 
   978  029E                     	;# 
   979  0311                     	;# 
   980  0311                     	;# 
   981  0312                     	;# 
   982  0313                     	;# 
   983  0318                     	;# 
   984  0318                     	;# 
   985  0319                     	;# 
   986  031A                     	;# 
   987  0394                     	;# 
   988  0395                     	;# 
   989  0396                     	;# 
   990  039A                     	;# 
   991  039C                     	;# 
   992  039D                     	;# 
   993  039E                     	;# 
   994  039F                     	;# 
   995  0415                     	;# 
   996  0416                     	;# 
   997  0417                     	;# 
   998  041C                     	;# 
   999  041D                     	;# 
  1000  041E                     	;# 
  1001  0FE4                     	;# 
  1002  0FE5                     	;# 
  1003  0FE6                     	;# 
  1004  0FE7                     	;# 
  1005  0FE8                     	;# 
  1006  0FE9                     	;# 
  1007  0FEA                     	;# 
  1008  0FEB                     	;# 
  1009  0FED                     	;# 
  1010  0FEE                     	;# 
  1011  0FEF                     	;# 
  1012  0097                     _WDTCON	set	151
  1013  0098                     _OSCTUNE	set	152
  1014  0099                     _OSCCON	set	153
  1015  0095                     _OPTION_REGbits	set	149
  1016  008D                     _TRISB	set	141
  1017  008C                     _TRISA	set	140
  1018  0116                     _BORCON	set	278
  1019  011E                     _APFCON1	set	286
  1020  011D                     _APFCON0	set	285
  1021  010D                     _LATB	set	269
  1022  010C                     _LATA	set	268
  1023  018C                     _ANSELA	set	396
  1024  018D                     _ANSELB	set	397
  1025  021D                     _SSP2CON1bits	set	541
  1026  021C                     _SSP2STATbits	set	540
  1027  0219                     _SSP2BUF	set	537
  1028  021E                     _SSP2CON2bits	set	542
  1029  021C                     _SSP2STAT	set	540
  1030  021E                     _SSP2CON2	set	542
  1031  021D                     _SSP2CON1	set	541
  1032  021A                     _SSP2ADD	set	538
  1033  020C                     _WPUA	set	524
  1034  020D                     _WPUB	set	525
  1035                           
  1036                           	psect	cinit
  1037  07FD                     start_initialization:	
  1038                           ; #config settings
  1039                           
  1040  07FD                     __initialization:
  1041  07FD                     end_of_initialization:	
  1042                           ;End of C runtime variable initialization code
  1043                           
  1044  07FD                     __end_of__initialization:
  1045  07FD  0020               	movlb	0
  1046  07FE  3186  2E6A         	ljmp	_main	;jump to C main() function
  1047                           
  1048                           	psect	cstackCOMMON
  1049  0070                     __pcstackCOMMON:
  1050  0070                     ?_OSCILLATOR_Initialize:
  1051  0070                     ??_OSCILLATOR_Initialize:	
  1052                           ; 1 bytes @ 0x0
  1053                           
  1054  0070                     ?_WDT_Initialize:	
  1055                           ; 1 bytes @ 0x0
  1056                           
  1057  0070                     ??_WDT_Initialize:	
  1058                           ; 1 bytes @ 0x0
  1059                           
  1060  0070                     ?_write_date:	
  1061                           ; 1 bytes @ 0x0
  1062                           
  1063  0070                     ?_read_date:	
  1064                           ; 1 bytes @ 0x0
  1065                           
  1066  0070                     ?_PIN_MANAGER_Initialize:	
  1067                           ; 1 bytes @ 0x0
  1068                           
  1069  0070                     ??_PIN_MANAGER_Initialize:	
  1070                           ; 1 bytes @ 0x0
  1071                           
  1072  0070                     ?_SYSTEM_Initialize:	
  1073                           ; 1 bytes @ 0x0
  1074                           
  1075  0070                     ??_SYSTEM_Initialize:	
  1076                           ; 1 bytes @ 0x0
  1077                           
  1078  0070                     ?_main:	
  1079                           ; 1 bytes @ 0x0
  1080                           
  1081  0070                     ?_i2c_wait:	
  1082                           ; 1 bytes @ 0x0
  1083                           
  1084  0070                     ??_i2c_wait:	
  1085                           ; 1 bytes @ 0x0
  1086                           
  1087  0070                     ?_i2c_start:	
  1088                           ; 1 bytes @ 0x0
  1089                           
  1090  0070                     ??_i2c_start:	
  1091                           ; 1 bytes @ 0x0
  1092                           
  1093  0070                     ?_i2c_stop:	
  1094                           ; 1 bytes @ 0x0
  1095                           
  1096  0070                     ??_i2c_stop:	
  1097                           ; 1 bytes @ 0x0
  1098                           
  1099  0070                     ?_i2c_repeated_start:	
  1100                           ; 1 bytes @ 0x0
  1101                           
  1102  0070                     ??_i2c_repeated_start:	
  1103                           ; 1 bytes @ 0x0
  1104                           
  1105  0070                     ?_i2c_write:	
  1106                           ; 1 bytes @ 0x0
  1107                           
  1108  0070                     ??_i2c_write:	
  1109                           ; 1 bytes @ 0x0
  1110                           
  1111  0070                     ?_i2c_read:	
  1112                           ; 1 bytes @ 0x0
  1113                           
  1114  0070                     ??_i2c_read:	
  1115                           ; 1 bytes @ 0x0
  1116                           
  1117  0070                     ?_bcd_2_decimal:	
  1118                           ; 1 bytes @ 0x0
  1119                           
  1120  0070                     ?_decimal_2_bcd:	
  1121                           ; 1 bytes @ 0x0
  1122                           
  1123  0070                     ?__read:	
  1124                           ; 1 bytes @ 0x0
  1125                           
  1126  0070                     ?___bmul:	
  1127                           ; 1 bytes @ 0x0
  1128                           
  1129  0070                     ?___awdiv:	
  1130                           ; 1 bytes @ 0x0
  1131                           
  1132  0070                     ?___awmod:	
  1133                           ; 2 bytes @ 0x0
  1134                           
  1135  0070                     i2c_write@data:	
  1136                           ; 2 bytes @ 0x0
  1137                           
  1138  0070                     ___bmul@multiplicand:	
  1139                           ; 1 bytes @ 0x0
  1140                           
  1141  0070                     ___awdiv@divisor:	
  1142                           ; 1 bytes @ 0x0
  1143                           
  1144  0070                     ___awmod@divisor:	
  1145                           ; 2 bytes @ 0x0
  1146                           
  1147                           
  1148                           ; 2 bytes @ 0x0
  1149  0070                     	ds	1
  1150  0071                     ??___bmul:
  1151  0071                     i2c_read@ack:	
  1152                           ; 1 bytes @ 0x1
  1153                           
  1154                           
  1155                           ; 1 bytes @ 0x1
  1156  0071                     	ds	1
  1157  0072                     i2c_read@data:
  1158  0072                     ___bmul@product:	
  1159                           ; 1 bytes @ 0x2
  1160                           
  1161  0072                     ___awdiv@dividend:	
  1162                           ; 1 bytes @ 0x2
  1163                           
  1164  0072                     ___awmod@dividend:	
  1165                           ; 2 bytes @ 0x2
  1166                           
  1167                           
  1168                           ; 2 bytes @ 0x2
  1169  0072                     	ds	1
  1170  0073                     ___bmul@multiplier:
  1171                           
  1172                           ; 1 bytes @ 0x3
  1173  0073                     	ds	1
  1174  0074                     ??_bcd_2_decimal:
  1175  0074                     ??___awdiv:	
  1176                           ; 1 bytes @ 0x4
  1177                           
  1178  0074                     ??___awmod:	
  1179                           ; 1 bytes @ 0x4
  1180                           
  1181                           
  1182                           ; 1 bytes @ 0x4
  1183  0074                     	ds	1
  1184  0075                     ___awdiv@counter:
  1185  0075                     ___awmod@counter:	
  1186                           ; 1 bytes @ 0x5
  1187                           
  1188                           
  1189                           ; 1 bytes @ 0x5
  1190  0075                     	ds	1
  1191  0076                     ___awdiv@sign:
  1192  0076                     ___awmod@sign:	
  1193                           ; 1 bytes @ 0x6
  1194                           
  1195                           
  1196                           ; 1 bytes @ 0x6
  1197  0076                     	ds	1
  1198  0077                     bcd_2_decimal@number:
  1199  0077                     ___awdiv@quotient:	
  1200                           ; 1 bytes @ 0x7
  1201                           
  1202                           
  1203                           ; 2 bytes @ 0x7
  1204  0077                     	ds	1
  1205  0078                     ??__read:
  1206                           
  1207                           ; 1 bytes @ 0x8
  1208  0078                     	ds	1
  1209  0079                     decimal_2_bcd@number:
  1210  0079                     __read@address:	
  1211                           ; 1 bytes @ 0x9
  1212                           
  1213                           
  1214                           ; 1 bytes @ 0x9
  1215  0079                     	ds	1
  1216  007A                     ??_write_date:
  1217  007A                     __read@data:	
  1218                           ; 1 bytes @ 0xA
  1219                           
  1220                           
  1221                           ; 1 bytes @ 0xA
  1222  007A                     	ds	1
  1223  007B                     ??_read_date:
  1224                           
  1225                           ; 1 bytes @ 0xB
  1226  007B                     	ds	1
  1227  007C                     write_date@date:
  1228  007C                     read_date@date:	
  1229                           ; 1 bytes @ 0xC
  1230                           
  1231                           
  1232                           ; 1 bytes @ 0xC
  1233  007C                     	ds	1
  1234  007D                     ??_main:
  1235                           
  1236                           ; 1 bytes @ 0xD
  1237  007D                     	ds	1
  1238                           
  1239                           	psect	cstackBANK0
  1240  0020                     __pcstackBANK0:
  1241  0020                     ??_decimal_2_bcd:
  1242                           
  1243                           ; 1 bytes @ 0x0
  1244  0020                     	ds	7
  1245  0027                     main@date:
  1246                           
  1247                           ; 6 bytes @ 0x7
  1248  0027                     	ds	6
  1249                           
  1250                           	psect	maintext
  1251  066A                     __pmaintext:	
  1252 ;;
  1253 ;;Main: autosize = 0, tempsize = 1, incstack = 0, save=0
  1254 ;;
  1255 ;; *************** function _main *****************
  1256 ;; Defined at:
  1257 ;;		line 7 in file "main.c"
  1258 ;; Parameters:    Size  Location     Type
  1259 ;;		None
  1260 ;; Auto vars:     Size  Location     Type
  1261 ;;  date            6    7[BANK0 ] struct Date
  1262 ;; Return value:  Size  Location     Type
  1263 ;;                  1    wreg      void 
  1264 ;; Registers used:
  1265 ;;		wreg, fsr1l, fsr1h, status,2, status,0, pclath, cstack
  1266 ;; Tracked objects:
  1267 ;;		On entry : B1F/0
  1268 ;;		On exit  : 0/0
  1269 ;;		Unchanged: 0/0
  1270 ;; Data sizes:     COMMON   BANK0   BANK1   BANK2   BANK3   BANK4
  1271 ;;      Params:         0       0       0       0       0       0
  1272 ;;      Locals:         0       6       0       0       0       0
  1273 ;;      Temps:          1       0       0       0       0       0
  1274 ;;      Totals:         1       6       0       0       0       0
  1275 ;;Total ram usage:        7 bytes
  1276 ;; Hardware stack levels required when called: 4
  1277 ;; This function calls:
  1278 ;;		_SYSTEM_Initialize
  1279 ;;		_read_date
  1280 ;;		_write_date
  1281 ;; This function is called by:
  1282 ;;		Startup code after reset
  1283 ;; This function uses a non-reentrant model
  1284 ;;
  1285                           
  1286                           
  1287                           ;psect for function _main
  1288  066A                     _main:
  1289  066A                     l1243:	
  1290                           ;incstack = 0
  1291                           ; Regs used in _main: [wreg+fsr1l+fsr1h+status,2+status,0+pclath+cstack]
  1292                           
  1293                           
  1294                           ;main.c: 10: SYSTEM_Initialize();
  1295  066A  3185  2589  3186   	fcall	_SYSTEM_Initialize
  1296  066D                     l1245:
  1297                           
  1298                           ;main.c: 12: ANSELB = 0xCA;
  1299  066D  30CA               	movlw	202
  1300  066E  0023               	movlb	3	; select bank3
  1301  066F  008D               	movwf	13	;volatile
  1302  0670                     l1247:
  1303                           
  1304                           ;main.c: 14: WPUB = 0x24;
  1305  0670  3024               	movlw	36
  1306  0671  0024               	movlb	4	; select bank4
  1307  0672  008D               	movwf	13	;volatile
  1308  0673                     l1249:
  1309                           
  1310                           ;main.c: 16: SSP2ADD = 0x13;
  1311  0673  3013               	movlw	19
  1312  0674  009A               	movwf	26	;volatile
  1313  0675                     l1251:
  1314                           
  1315                           ;main.c: 17: SSP2CON1 = 0x28;
  1316  0675  3028               	movlw	40
  1317  0676  009D               	movwf	29	;volatile
  1318  0677                     l1253:
  1319                           
  1320                           ;main.c: 18: SSP2CON2 = 0x0;
  1321  0677  019E               	clrf	30	;volatile
  1322  0678                     l1255:
  1323                           
  1324                           ;main.c: 19: SSP2STAT = 0;
  1325  0678  019C               	clrf	28	;volatile
  1326  0679                     l1257:
  1327                           
  1328                           ;main.c: 21: struct Date date;;main.c: 22: date.year = 20;
  1329  0679  3014               	movlw	20
  1330  067A  00FD               	movwf	??_main
  1331  067B  087D               	movf	??_main,w
  1332  067C  0020               	movlb	0	; select bank0
  1333  067D  00A7               	movwf	main@date
  1334  067E                     l1259:
  1335                           
  1336                           ;main.c: 23: date.month = 11;
  1337  067E  300B               	movlw	11
  1338  067F  00FD               	movwf	??_main
  1339  0680  087D               	movf	??_main,w
  1340  0681  00A8               	movwf	main@date+1
  1341  0682                     l1261:
  1342                           
  1343                           ;main.c: 24: date.day = 15;
  1344  0682  300F               	movlw	15
  1345  0683  00FD               	movwf	??_main
  1346  0684  087D               	movf	??_main,w
  1347  0685  00A9               	movwf	main@date+2
  1348  0686                     l1263:
  1349                           
  1350                           ;main.c: 25: date.hour = 8;
  1351  0686  3008               	movlw	8
  1352  0687  00FD               	movwf	??_main
  1353  0688  087D               	movf	??_main,w
  1354  0689  00AA               	movwf	main@date+3
  1355  068A                     l1265:
  1356                           
  1357                           ;main.c: 26: date.min = 40;
  1358  068A  3028               	movlw	40
  1359  068B  00FD               	movwf	??_main
  1360  068C  087D               	movf	??_main,w
  1361  068D  00AB               	movwf	main@date+4
  1362  068E                     l1267:
  1363                           
  1364                           ;main.c: 27: date.sec = 0;
  1365  068E  01AC               	clrf	main@date+5
  1366  068F                     l1269:
  1367                           
  1368                           ;main.c: 29: write_date(&date);
  1369  068F  3027               	movlw	(low (main@date| 0))& (0+255)
  1370  0690  3187  279D  3186   	fcall	_write_date
  1371  0693                     l1271:
  1372                           
  1373                           ;main.c: 32: read_date(&date);
  1374  0693  3027               	movlw	(low (main@date| 0))& (0+255)
  1375  0694  3186  26A5  3186   	fcall	_read_date
  1376  0697                     l1273:
  1377                           
  1378                           ;main.c: 35: {;main.c: 36: read_date(&date);
  1379  0697  3027               	movlw	(low (main@date| 0))& (0+255)
  1380  0698  3186  26A5  3186   	fcall	_read_date
  1381  069B                     l1275:
  1382                           
  1383                           ;main.c: 37: _delay((unsigned long)((20)*(8000000/4000.0)));
  1384  069B  3034               	movlw	52
  1385  069C  00FD               	movwf	??_main
  1386  069D  30F2               	movlw	242
  1387  069E                     u637:
  1388  069E  0B89               	decfsz	9,f
  1389  069F  2E9E               	goto	u637
  1390  06A0  0BFD               	decfsz	??_main,f
  1391  06A1  2E9E               	goto	u637
  1392  06A2  2E97               	goto	l1273
  1393  06A3  3180  2802         	ljmp	start
  1394  06A5                     __end_of_main:
  1395                           
  1396                           	psect	text1
  1397  079D                     __ptext1:	
  1398 ;; *************** function _write_date *****************
  1399 ;; Defined at:
  1400 ;;		line 36 in file "DS3231.c"
  1401 ;; Parameters:    Size  Location     Type
  1402 ;;  date            1    wreg     PTR struct Date
  1403 ;;		 -> main@date(6), 
  1404 ;; Auto vars:     Size  Location     Type
  1405 ;;  date            1   12[COMMON] PTR struct Date
  1406 ;;		 -> main@date(6), 
  1407 ;; Return value:  Size  Location     Type
  1408 ;;                  1    wreg      void 
  1409 ;; Registers used:
  1410 ;;		wreg, fsr1l, fsr1h, status,2, status,0, pclath, cstack
  1411 ;; Tracked objects:
  1412 ;;		On entry : 0/0
  1413 ;;		On exit  : 0/0
  1414 ;;		Unchanged: 0/0
  1415 ;; Data sizes:     COMMON   BANK0   BANK1   BANK2   BANK3   BANK4
  1416 ;;      Params:         0       0       0       0       0       0
  1417 ;;      Locals:         1       0       0       0       0       0
  1418 ;;      Temps:          2       0       0       0       0       0
  1419 ;;      Totals:         3       0       0       0       0       0
  1420 ;;Total ram usage:        3 bytes
  1421 ;; Hardware stack levels used: 1
  1422 ;; Hardware stack levels required when called: 2
  1423 ;; This function calls:
  1424 ;;		_decimal_2_bcd
  1425 ;;		_i2c_start
  1426 ;;		_i2c_stop
  1427 ;;		_i2c_write
  1428 ;; This function is called by:
  1429 ;;		_main
  1430 ;; This function uses a non-reentrant model
  1431 ;;
  1432                           
  1433                           
  1434                           ;psect for function _write_date
  1435  079D                     _write_date:
  1436                           
  1437                           ;incstack = 0
  1438                           ; Regs used in _write_date: [wreg+fsr1l+fsr1h+status,2+status,0+pclath+cstack]
  1439                           ;write_date@date stored from wreg
  1440  079D  00FC               	movwf	write_date@date
  1441  079E                     l1219:
  1442                           
  1443                           ;DS3231.c: 37: i2c_start();
  1444  079E  3185  259D  3187   	fcall	_i2c_start
  1445                           
  1446                           ;DS3231.c: 38: i2c_write(0xD0);
  1447  07A1  30D0               	movlw	208
  1448  07A2  3185  25B3  3187   	fcall	_i2c_write
  1449                           
  1450                           ;DS3231.c: 39: i2c_write(0x00);
  1451  07A5  3000               	movlw	0
  1452  07A6  3185  25B3  3187   	fcall	_i2c_write
  1453  07A9                     l1221:
  1454                           
  1455                           ;DS3231.c: 41: i2c_write(decimal_2_bcd(date->sec));
  1456  07A9  087C               	movf	write_date@date,w
  1457  07AA  3E05               	addlw	5
  1458  07AB  0086               	movwf	6
  1459  07AC  0187               	clrf	7
  1460  07AD  0801               	movf	1,w
  1461  07AE  3186  263C  3187   	fcall	_decimal_2_bcd
  1462  07B1  3185  25B3  3187   	fcall	_i2c_write
  1463  07B4                     l1223:
  1464                           
  1465                           ;DS3231.c: 42: i2c_write(decimal_2_bcd(date->min));
  1466  07B4  087C               	movf	write_date@date,w
  1467  07B5  3E04               	addlw	4
  1468  07B6  0086               	movwf	6
  1469  07B7  0187               	clrf	7
  1470  07B8  0801               	movf	1,w
  1471  07B9  3186  263C  3187   	fcall	_decimal_2_bcd
  1472  07BC  3185  25B3  3187   	fcall	_i2c_write
  1473  07BF                     l1225:
  1474                           
  1475                           ;DS3231.c: 43: i2c_write(decimal_2_bcd(date->hour));
  1476  07BF  087C               	movf	write_date@date,w
  1477  07C0  3E03               	addlw	3
  1478  07C1  0086               	movwf	6
  1479  07C2  0187               	clrf	7
  1480  07C3  0801               	movf	1,w
  1481  07C4  3186  263C  3187   	fcall	_decimal_2_bcd
  1482  07C7  3185  25B3  3187   	fcall	_i2c_write
  1483  07CA                     l1227:
  1484                           
  1485                           ;DS3231.c: 44: i2c_write(1);
  1486  07CA  3001               	movlw	1
  1487  07CB  3185  25B3  3187   	fcall	_i2c_write
  1488                           
  1489                           ;DS3231.c: 45: i2c_write(decimal_2_bcd(date->day));
  1490  07CE  087C               	movf	write_date@date,w
  1491  07CF  3E02               	addlw	2
  1492  07D0  0086               	movwf	6
  1493  07D1  0187               	clrf	7
  1494  07D2  0801               	movf	1,w
  1495  07D3  3186  263C  3187   	fcall	_decimal_2_bcd
  1496  07D6  3185  25B3  3187   	fcall	_i2c_write
  1497                           
  1498                           ;DS3231.c: 46: i2c_write(decimal_2_bcd(date->month));
  1499  07D9  0A7C               	incf	write_date@date,w
  1500  07DA  0086               	movwf	6
  1501  07DB  0187               	clrf	7
  1502  07DC  0801               	movf	1,w
  1503  07DD  3186  263C  3187   	fcall	_decimal_2_bcd
  1504  07E0  3185  25B3  3187   	fcall	_i2c_write
  1505                           
  1506                           ;DS3231.c: 47: i2c_write(decimal_2_bcd(date->year));
  1507  07E3  087C               	movf	write_date@date,w
  1508  07E4  0086               	movwf	6
  1509  07E5  0187               	clrf	7
  1510  07E6  0801               	movf	1,w
  1511  07E7  3186  263C  3187   	fcall	_decimal_2_bcd
  1512  07EA  3185  25B3  3187   	fcall	_i2c_write
  1513  07ED                     l1229:
  1514                           
  1515                           ;DS3231.c: 48: i2c_stop();
  1516  07ED  3185  2582  3187   	fcall	_i2c_stop
  1517  07F0                     l1231:
  1518                           
  1519                           ;DS3231.c: 50: _delay((unsigned long)((200)*(8000000/4000.0)));
  1520  07F0  3003               	movlw	3
  1521  07F1  00FB               	movwf	??_write_date+1
  1522  07F2  3008               	movlw	8
  1523  07F3  00FA               	movwf	??_write_date
  1524  07F4  3077               	movlw	119
  1525  07F5                     u647:
  1526  07F5  0B89               	decfsz	9,f
  1527  07F6  2FF5               	goto	u647
  1528  07F7  0BFA               	decfsz	??_write_date,f
  1529  07F8  2FF5               	goto	u647
  1530  07F9  0BFB               	decfsz	??_write_date+1,f
  1531  07FA  2FF5               	goto	u647
  1532  07FB  0000               	nop
  1533  07FC                     l151:
  1534  07FC  0008               	return
  1535  07FD                     __end_of_write_date:
  1536                           
  1537                           	psect	text2
  1538  063C                     __ptext2:	
  1539 ;; *************** function _decimal_2_bcd *****************
  1540 ;; Defined at:
  1541 ;;		line 28 in file "DS3231.c"
  1542 ;; Parameters:    Size  Location     Type
  1543 ;;  number          1    wreg     unsigned char 
  1544 ;; Auto vars:     Size  Location     Type
  1545 ;;  number          1    9[COMMON] unsigned char 
  1546 ;; Return value:  Size  Location     Type
  1547 ;;                  1    wreg      unsigned char 
  1548 ;; Registers used:
  1549 ;;		wreg, status,2, status,0, pclath, cstack
  1550 ;; Tracked objects:
  1551 ;;		On entry : 0/0
  1552 ;;		On exit  : 0/0
  1553 ;;		Unchanged: 0/0
  1554 ;; Data sizes:     COMMON   BANK0   BANK1   BANK2   BANK3   BANK4
  1555 ;;      Params:         0       0       0       0       0       0
  1556 ;;      Locals:         1       0       0       0       0       0
  1557 ;;      Temps:          0       7       0       0       0       0
  1558 ;;      Totals:         1       7       0       0       0       0
  1559 ;;Total ram usage:        8 bytes
  1560 ;; Hardware stack levels used: 1
  1561 ;; Hardware stack levels required when called: 1
  1562 ;; This function calls:
  1563 ;;		___awdiv
  1564 ;;		___awmod
  1565 ;; This function is called by:
  1566 ;;		_write_date
  1567 ;; This function uses a non-reentrant model
  1568 ;;
  1569                           
  1570                           
  1571                           ;psect for function _decimal_2_bcd
  1572  063C                     _decimal_2_bcd:
  1573                           
  1574                           ;incstack = 0
  1575                           ; Regs used in _decimal_2_bcd: [wreg+status,2+status,0+pclath+cstack]
  1576                           ;decimal_2_bcd@number stored from wreg
  1577  063C  00F9               	movwf	decimal_2_bcd@number
  1578  063D                     l1207:
  1579                           
  1580                           ;DS3231.c: 29: return (((number / 10) << 4) + (number % 10));
  1581  063D  300A               	movlw	10
  1582  063E  00F0               	movwf	___awmod@divisor
  1583  063F  3000               	movlw	0
  1584  0640  00F1               	movwf	___awmod@divisor+1
  1585  0641  0879               	movf	decimal_2_bcd@number,w
  1586  0642  0020               	movlb	0	; select bank0
  1587  0643  00A0               	movwf	??_decimal_2_bcd
  1588  0644  01A1               	clrf	??_decimal_2_bcd+1
  1589  0645  0820               	movf	??_decimal_2_bcd,w
  1590  0646  00F2               	movwf	___awmod@dividend
  1591  0647  0821               	movf	??_decimal_2_bcd+1,w
  1592  0648  00F3               	movwf	___awmod@dividend+1
  1593  0649  3186  26EB  3186   	fcall	___awmod
  1594  064C  0870               	movf	?___awmod,w
  1595  064D  0020               	movlb	0	; select bank0
  1596  064E  00A2               	movwf	??_decimal_2_bcd+2
  1597  064F  0871               	movf	?___awmod+1,w
  1598  0650  00A3               	movwf	??_decimal_2_bcd+3
  1599  0651  300A               	movlw	10
  1600  0652  00F0               	movwf	___awdiv@divisor
  1601  0653  3000               	movlw	0
  1602  0654  00F1               	movwf	___awdiv@divisor+1
  1603  0655  0879               	movf	decimal_2_bcd@number,w
  1604  0656  00A4               	movwf	??_decimal_2_bcd+4
  1605  0657  01A5               	clrf	??_decimal_2_bcd+5
  1606  0658  0824               	movf	??_decimal_2_bcd+4,w
  1607  0659  00F2               	movwf	___awdiv@dividend
  1608  065A  0825               	movf	??_decimal_2_bcd+5,w
  1609  065B  00F3               	movwf	___awdiv@dividend+1
  1610  065C  3187  273E  3186   	fcall	___awdiv
  1611  065F  0870               	movf	?___awdiv,w
  1612  0660  0020               	movlb	0	; select bank0
  1613  0661  00A6               	movwf	??_decimal_2_bcd+6
  1614  0662  3003               	movlw	3
  1615  0663                     u625:
  1616  0663  35A6               	lslf	??_decimal_2_bcd+6,f
  1617  0664  3EFF               	addlw	-1
  1618  0665  1D03               	skipz
  1619  0666  2E63               	goto	u625
  1620  0667  3526               	lslf	??_decimal_2_bcd+6,w
  1621  0668  0722               	addwf	??_decimal_2_bcd+2,w
  1622  0669                     l148:
  1623  0669  0008               	return
  1624  066A                     __end_of_decimal_2_bcd:
  1625                           
  1626                           	psect	text3
  1627  06EB                     __ptext3:	
  1628 ;; *************** function ___awmod *****************
  1629 ;; Defined at:
  1630 ;;		line 5 in file "C:\Program Files\Microchip\xc8\v2.32\pic\sources\c90\common\awmod.c"
  1631 ;; Parameters:    Size  Location     Type
  1632 ;;  divisor         2    0[COMMON] int 
  1633 ;;  dividend        2    2[COMMON] int 
  1634 ;; Auto vars:     Size  Location     Type
  1635 ;;  sign            1    6[COMMON] unsigned char 
  1636 ;;  counter         1    5[COMMON] unsigned char 
  1637 ;; Return value:  Size  Location     Type
  1638 ;;                  2    0[COMMON] int 
  1639 ;; Registers used:
  1640 ;;		wreg, status,2, status,0
  1641 ;; Tracked objects:
  1642 ;;		On entry : 0/0
  1643 ;;		On exit  : 0/0
  1644 ;;		Unchanged: 0/0
  1645 ;; Data sizes:     COMMON   BANK0   BANK1   BANK2   BANK3   BANK4
  1646 ;;      Params:         4       0       0       0       0       0
  1647 ;;      Locals:         2       0       0       0       0       0
  1648 ;;      Temps:          1       0       0       0       0       0
  1649 ;;      Totals:         7       0       0       0       0       0
  1650 ;;Total ram usage:        7 bytes
  1651 ;; Hardware stack levels used: 1
  1652 ;; This function calls:
  1653 ;;		Nothing
  1654 ;; This function is called by:
  1655 ;;		_decimal_2_bcd
  1656 ;; This function uses a non-reentrant model
  1657 ;;
  1658                           
  1659                           
  1660                           ;psect for function ___awmod
  1661  06EB                     ___awmod:
  1662  06EB                     l1141:	
  1663                           ;incstack = 0
  1664                           ; Regs used in ___awmod: [wreg+status,2+status,0]
  1665                           
  1666  06EB  01F6               	clrf	___awmod@sign
  1667  06EC                     l1143:
  1668  06EC  1FF3               	btfss	___awmod@dividend+1,7
  1669  06ED  2EEF               	goto	u531
  1670  06EE  2EF0               	goto	u530
  1671  06EF                     u531:
  1672  06EF  2EF7               	goto	l1149
  1673  06F0                     u530:
  1674  06F0                     l1145:
  1675  06F0  09F2               	comf	___awmod@dividend,f
  1676  06F1  09F3               	comf	___awmod@dividend+1,f
  1677  06F2  0AF2               	incf	___awmod@dividend,f
  1678  06F3  1903               	skipnz
  1679  06F4  0AF3               	incf	___awmod@dividend+1,f
  1680  06F5                     l1147:
  1681  06F5  01F6               	clrf	___awmod@sign
  1682  06F6  0AF6               	incf	___awmod@sign,f
  1683  06F7                     l1149:
  1684  06F7  1FF1               	btfss	___awmod@divisor+1,7
  1685  06F8  2EFA               	goto	u541
  1686  06F9  2EFB               	goto	u540
  1687  06FA                     u541:
  1688  06FA  2F00               	goto	l1153
  1689  06FB                     u540:
  1690  06FB                     l1151:
  1691  06FB  09F0               	comf	___awmod@divisor,f
  1692  06FC  09F1               	comf	___awmod@divisor+1,f
  1693  06FD  0AF0               	incf	___awmod@divisor,f
  1694  06FE  1903               	skipnz
  1695  06FF  0AF1               	incf	___awmod@divisor+1,f
  1696  0700                     l1153:
  1697  0700  0870               	movf	___awmod@divisor,w
  1698  0701  0471               	iorwf	___awmod@divisor+1,w
  1699  0702  1903               	btfsc	3,2
  1700  0703  2F05               	goto	u551
  1701  0704  2F06               	goto	u550
  1702  0705                     u551:
  1703  0705  2F2F               	goto	l1171
  1704  0706                     u550:
  1705  0706                     l1155:
  1706  0706  01F5               	clrf	___awmod@counter
  1707  0707  0AF5               	incf	___awmod@counter,f
  1708  0708  2F12               	goto	l1161
  1709  0709                     l1157:
  1710  0709  3001               	movlw	1
  1711  070A                     u565:
  1712  070A  35F0               	lslf	___awmod@divisor,f
  1713  070B  0DF1               	rlf	___awmod@divisor+1,f
  1714  070C  0B89               	decfsz	9,f
  1715  070D  2F0A               	goto	u565
  1716  070E                     l1159:
  1717  070E  3001               	movlw	1
  1718  070F  00F4               	movwf	??___awmod
  1719  0710  0874               	movf	??___awmod,w
  1720  0711  07F5               	addwf	___awmod@counter,f
  1721  0712                     l1161:
  1722  0712  1FF1               	btfss	___awmod@divisor+1,7
  1723  0713  2F15               	goto	u571
  1724  0714  2F16               	goto	u570
  1725  0715                     u571:
  1726  0715  2F09               	goto	l1157
  1727  0716                     u570:
  1728  0716                     l1163:
  1729  0716  0871               	movf	___awmod@divisor+1,w
  1730  0717  0273               	subwf	___awmod@dividend+1,w
  1731  0718  1D03               	skipz
  1732  0719  2F1C               	goto	u585
  1733  071A  0870               	movf	___awmod@divisor,w
  1734  071B  0272               	subwf	___awmod@dividend,w
  1735  071C                     u585:
  1736  071C  1C03               	skipc
  1737  071D  2F1F               	goto	u581
  1738  071E  2F20               	goto	u580
  1739  071F                     u581:
  1740  071F  2F24               	goto	l1167
  1741  0720                     u580:
  1742  0720                     l1165:
  1743  0720  0870               	movf	___awmod@divisor,w
  1744  0721  02F2               	subwf	___awmod@dividend,f
  1745  0722  0871               	movf	___awmod@divisor+1,w
  1746  0723  3BF3               	subwfb	___awmod@dividend+1,f
  1747  0724                     l1167:
  1748  0724  3001               	movlw	1
  1749  0725                     u595:
  1750  0725  36F1               	lsrf	___awmod@divisor+1,f
  1751  0726  0CF0               	rrf	___awmod@divisor,f
  1752  0727  0B89               	decfsz	9,f
  1753  0728  2F25               	goto	u595
  1754  0729                     l1169:
  1755  0729  3001               	movlw	1
  1756  072A  02F5               	subwf	___awmod@counter,f
  1757  072B  1D03               	btfss	3,2
  1758  072C  2F2E               	goto	u601
  1759  072D  2F2F               	goto	u600
  1760  072E                     u601:
  1761  072E  2F16               	goto	l1163
  1762  072F                     u600:
  1763  072F                     l1171:
  1764  072F  0876               	movf	___awmod@sign,w
  1765  0730  1903               	btfsc	3,2
  1766  0731  2F33               	goto	u611
  1767  0732  2F34               	goto	u610
  1768  0733                     u611:
  1769  0733  2F39               	goto	l1175
  1770  0734                     u610:
  1771  0734                     l1173:
  1772  0734  09F2               	comf	___awmod@dividend,f
  1773  0735  09F3               	comf	___awmod@dividend+1,f
  1774  0736  0AF2               	incf	___awmod@dividend,f
  1775  0737  1903               	skipnz
  1776  0738  0AF3               	incf	___awmod@dividend+1,f
  1777  0739                     l1175:
  1778  0739  0873               	movf	___awmod@dividend+1,w
  1779  073A  00F1               	movwf	?___awmod+1
  1780  073B  0872               	movf	___awmod@dividend,w
  1781  073C  00F0               	movwf	?___awmod
  1782  073D                     l473:
  1783  073D  0008               	return
  1784  073E                     __end_of___awmod:
  1785                           
  1786                           	psect	text4
  1787  073E                     __ptext4:	
  1788 ;; *************** function ___awdiv *****************
  1789 ;; Defined at:
  1790 ;;		line 5 in file "C:\Program Files\Microchip\xc8\v2.32\pic\sources\c90\common\awdiv.c"
  1791 ;; Parameters:    Size  Location     Type
  1792 ;;  divisor         2    0[COMMON] int 
  1793 ;;  dividend        2    2[COMMON] int 
  1794 ;; Auto vars:     Size  Location     Type
  1795 ;;  quotient        2    7[COMMON] int 
  1796 ;;  sign            1    6[COMMON] unsigned char 
  1797 ;;  counter         1    5[COMMON] unsigned char 
  1798 ;; Return value:  Size  Location     Type
  1799 ;;                  2    0[COMMON] int 
  1800 ;; Registers used:
  1801 ;;		wreg, status,2, status,0
  1802 ;; Tracked objects:
  1803 ;;		On entry : 0/0
  1804 ;;		On exit  : 0/0
  1805 ;;		Unchanged: 0/0
  1806 ;; Data sizes:     COMMON   BANK0   BANK1   BANK2   BANK3   BANK4
  1807 ;;      Params:         4       0       0       0       0       0
  1808 ;;      Locals:         4       0       0       0       0       0
  1809 ;;      Temps:          1       0       0       0       0       0
  1810 ;;      Totals:         9       0       0       0       0       0
  1811 ;;Total ram usage:        9 bytes
  1812 ;; Hardware stack levels used: 1
  1813 ;; This function calls:
  1814 ;;		Nothing
  1815 ;; This function is called by:
  1816 ;;		_decimal_2_bcd
  1817 ;; This function uses a non-reentrant model
  1818 ;;
  1819                           
  1820                           
  1821                           ;psect for function ___awdiv
  1822  073E                     ___awdiv:
  1823  073E                     l1097:	
  1824                           ;incstack = 0
  1825                           ; Regs used in ___awdiv: [wreg+status,2+status,0]
  1826                           
  1827  073E  01F6               	clrf	___awdiv@sign
  1828  073F                     l1099:
  1829  073F  1FF1               	btfss	___awdiv@divisor+1,7
  1830  0740  2F42               	goto	u431
  1831  0741  2F43               	goto	u430
  1832  0742                     u431:
  1833  0742  2F4A               	goto	l1105
  1834  0743                     u430:
  1835  0743                     l1101:
  1836  0743  09F0               	comf	___awdiv@divisor,f
  1837  0744  09F1               	comf	___awdiv@divisor+1,f
  1838  0745  0AF0               	incf	___awdiv@divisor,f
  1839  0746  1903               	skipnz
  1840  0747  0AF1               	incf	___awdiv@divisor+1,f
  1841  0748                     l1103:
  1842  0748  01F6               	clrf	___awdiv@sign
  1843  0749  0AF6               	incf	___awdiv@sign,f
  1844  074A                     l1105:
  1845  074A  1FF3               	btfss	___awdiv@dividend+1,7
  1846  074B  2F4D               	goto	u441
  1847  074C  2F4E               	goto	u440
  1848  074D                     u441:
  1849  074D  2F57               	goto	l1111
  1850  074E                     u440:
  1851  074E                     l1107:
  1852  074E  09F2               	comf	___awdiv@dividend,f
  1853  074F  09F3               	comf	___awdiv@dividend+1,f
  1854  0750  0AF2               	incf	___awdiv@dividend,f
  1855  0751  1903               	skipnz
  1856  0752  0AF3               	incf	___awdiv@dividend+1,f
  1857  0753                     l1109:
  1858  0753  3001               	movlw	1
  1859  0754  00F4               	movwf	??___awdiv
  1860  0755  0874               	movf	??___awdiv,w
  1861  0756  06F6               	xorwf	___awdiv@sign,f
  1862  0757                     l1111:
  1863  0757  01F7               	clrf	___awdiv@quotient
  1864  0758  01F8               	clrf	___awdiv@quotient+1
  1865  0759                     l1113:
  1866  0759  0870               	movf	___awdiv@divisor,w
  1867  075A  0471               	iorwf	___awdiv@divisor+1,w
  1868  075B  1903               	btfsc	3,2
  1869  075C  2F5E               	goto	u451
  1870  075D  2F5F               	goto	u450
  1871  075E                     u451:
  1872  075E  2F8E               	goto	l1133
  1873  075F                     u450:
  1874  075F                     l1115:
  1875  075F  01F5               	clrf	___awdiv@counter
  1876  0760  0AF5               	incf	___awdiv@counter,f
  1877  0761  2F6B               	goto	l1121
  1878  0762                     l1117:
  1879  0762  3001               	movlw	1
  1880  0763                     u465:
  1881  0763  35F0               	lslf	___awdiv@divisor,f
  1882  0764  0DF1               	rlf	___awdiv@divisor+1,f
  1883  0765  0B89               	decfsz	9,f
  1884  0766  2F63               	goto	u465
  1885  0767                     l1119:
  1886  0767  3001               	movlw	1
  1887  0768  00F4               	movwf	??___awdiv
  1888  0769  0874               	movf	??___awdiv,w
  1889  076A  07F5               	addwf	___awdiv@counter,f
  1890  076B                     l1121:
  1891  076B  1FF1               	btfss	___awdiv@divisor+1,7
  1892  076C  2F6E               	goto	u471
  1893  076D  2F6F               	goto	u470
  1894  076E                     u471:
  1895  076E  2F62               	goto	l1117
  1896  076F                     u470:
  1897  076F                     l1123:
  1898  076F  3001               	movlw	1
  1899  0770                     u485:
  1900  0770  35F7               	lslf	___awdiv@quotient,f
  1901  0771  0DF8               	rlf	___awdiv@quotient+1,f
  1902  0772  0B89               	decfsz	9,f
  1903  0773  2F70               	goto	u485
  1904  0774  0871               	movf	___awdiv@divisor+1,w
  1905  0775  0273               	subwf	___awdiv@dividend+1,w
  1906  0776  1D03               	skipz
  1907  0777  2F7A               	goto	u495
  1908  0778  0870               	movf	___awdiv@divisor,w
  1909  0779  0272               	subwf	___awdiv@dividend,w
  1910  077A                     u495:
  1911  077A  1C03               	skipc
  1912  077B  2F7D               	goto	u491
  1913  077C  2F7E               	goto	u490
  1914  077D                     u491:
  1915  077D  2F83               	goto	l1129
  1916  077E                     u490:
  1917  077E                     l1125:
  1918  077E  0870               	movf	___awdiv@divisor,w
  1919  077F  02F2               	subwf	___awdiv@dividend,f
  1920  0780  0871               	movf	___awdiv@divisor+1,w
  1921  0781  3BF3               	subwfb	___awdiv@dividend+1,f
  1922  0782                     l1127:
  1923  0782  1477               	bsf	___awdiv@quotient,0
  1924  0783                     l1129:
  1925  0783  3001               	movlw	1
  1926  0784                     u505:
  1927  0784  36F1               	lsrf	___awdiv@divisor+1,f
  1928  0785  0CF0               	rrf	___awdiv@divisor,f
  1929  0786  0B89               	decfsz	9,f
  1930  0787  2F84               	goto	u505
  1931  0788                     l1131:
  1932  0788  3001               	movlw	1
  1933  0789  02F5               	subwf	___awdiv@counter,f
  1934  078A  1D03               	btfss	3,2
  1935  078B  2F8D               	goto	u511
  1936  078C  2F8E               	goto	u510
  1937  078D                     u511:
  1938  078D  2F6F               	goto	l1123
  1939  078E                     u510:
  1940  078E                     l1133:
  1941  078E  0876               	movf	___awdiv@sign,w
  1942  078F  1903               	btfsc	3,2
  1943  0790  2F92               	goto	u521
  1944  0791  2F93               	goto	u520
  1945  0792                     u521:
  1946  0792  2F98               	goto	l1137
  1947  0793                     u520:
  1948  0793                     l1135:
  1949  0793  09F7               	comf	___awdiv@quotient,f
  1950  0794  09F8               	comf	___awdiv@quotient+1,f
  1951  0795  0AF7               	incf	___awdiv@quotient,f
  1952  0796  1903               	skipnz
  1953  0797  0AF8               	incf	___awdiv@quotient+1,f
  1954  0798                     l1137:
  1955  0798  0878               	movf	___awdiv@quotient+1,w
  1956  0799  00F1               	movwf	?___awdiv+1
  1957  079A  0877               	movf	___awdiv@quotient,w
  1958  079B  00F0               	movwf	?___awdiv
  1959  079C                     l460:
  1960  079C  0008               	return
  1961  079D                     __end_of___awdiv:
  1962                           
  1963                           	psect	text5
  1964  06A5                     __ptext5:	
  1965 ;; *************** function _read_date *****************
  1966 ;; Defined at:
  1967 ;;		line 78 in file "DS3231.c"
  1968 ;; Parameters:    Size  Location     Type
  1969 ;;  date            1    wreg     PTR struct Date
  1970 ;;		 -> main@date(6), 
  1971 ;; Auto vars:     Size  Location     Type
  1972 ;;  date            1   12[COMMON] PTR struct Date
  1973 ;;		 -> main@date(6), 
  1974 ;; Return value:  Size  Location     Type
  1975 ;;                  1    wreg      void 
  1976 ;; Registers used:
  1977 ;;		wreg, fsr1l, fsr1h, status,2, status,0, pclath, cstack
  1978 ;; Tracked objects:
  1979 ;;		On entry : 0/0
  1980 ;;		On exit  : 0/0
  1981 ;;		Unchanged: 0/0
  1982 ;; Data sizes:     COMMON   BANK0   BANK1   BANK2   BANK3   BANK4
  1983 ;;      Params:         0       0       0       0       0       0
  1984 ;;      Locals:         1       0       0       0       0       0
  1985 ;;      Temps:          1       0       0       0       0       0
  1986 ;;      Totals:         2       0       0       0       0       0
  1987 ;;Total ram usage:        2 bytes
  1988 ;; Hardware stack levels used: 1
  1989 ;; Hardware stack levels required when called: 3
  1990 ;; This function calls:
  1991 ;;		__read
  1992 ;; This function is called by:
  1993 ;;		_main
  1994 ;; This function uses a non-reentrant model
  1995 ;;
  1996                           
  1997                           
  1998                           ;psect for function _read_date
  1999  06A5                     _read_date:
  2000                           
  2001                           ;incstack = 0
  2002                           ; Regs used in _read_date: [wreg+fsr1l+fsr1h+status,2+status,0+pclath+cstack]
  2003                           ;read_date@date stored from wreg
  2004  06A5  00FC               	movwf	read_date@date
  2005  06A6                     l1233:
  2006                           
  2007                           ;DS3231.c: 79: date->year = _read(6);
  2008  06A6  3006               	movlw	6
  2009  06A7  3186  261A  3186   	fcall	__read
  2010  06AA  00FB               	movwf	??_read_date
  2011  06AB  087C               	movf	read_date@date,w
  2012  06AC  0086               	movwf	6
  2013  06AD  0187               	clrf	7
  2014  06AE  087B               	movf	??_read_date,w
  2015  06AF  0081               	movwf	1
  2016                           
  2017                           ;DS3231.c: 80: date->month = _read(5);
  2018  06B0  3005               	movlw	5
  2019  06B1  3186  261A  3186   	fcall	__read
  2020  06B4  00FB               	movwf	??_read_date
  2021  06B5  0A7C               	incf	read_date@date,w
  2022  06B6  0086               	movwf	6
  2023  06B7  0187               	clrf	7
  2024  06B8  087B               	movf	??_read_date,w
  2025  06B9  0081               	movwf	1
  2026                           
  2027                           ;DS3231.c: 81: date->day = _read(4);
  2028  06BA  3004               	movlw	4
  2029  06BB  3186  261A  3186   	fcall	__read
  2030  06BE  00FB               	movwf	??_read_date
  2031  06BF  087C               	movf	read_date@date,w
  2032  06C0  3E02               	addlw	2
  2033  06C1  0086               	movwf	6
  2034  06C2  0187               	clrf	7
  2035  06C3  087B               	movf	??_read_date,w
  2036  06C4  0081               	movwf	1
  2037  06C5                     l1235:
  2038                           
  2039                           ;DS3231.c: 82: _read(3);
  2040  06C5  3003               	movlw	3
  2041  06C6  3186  261A  3186   	fcall	__read
  2042  06C9                     l1237:
  2043                           
  2044                           ;DS3231.c: 83: date->hour = _read(2);
  2045  06C9  3002               	movlw	2
  2046  06CA  3186  261A  3186   	fcall	__read
  2047  06CD  00FB               	movwf	??_read_date
  2048  06CE  087C               	movf	read_date@date,w
  2049  06CF  3E03               	addlw	3
  2050  06D0  0086               	movwf	6
  2051  06D1  0187               	clrf	7
  2052  06D2  087B               	movf	??_read_date,w
  2053  06D3  0081               	movwf	1
  2054  06D4                     l1239:
  2055                           
  2056                           ;DS3231.c: 84: date->min = _read(1);
  2057  06D4  3001               	movlw	1
  2058  06D5  3186  261A  3186   	fcall	__read
  2059  06D8  00FB               	movwf	??_read_date
  2060  06D9  087C               	movf	read_date@date,w
  2061  06DA  3E04               	addlw	4
  2062  06DB  0086               	movwf	6
  2063  06DC  0187               	clrf	7
  2064  06DD  087B               	movf	??_read_date,w
  2065  06DE  0081               	movwf	1
  2066  06DF                     l1241:
  2067                           
  2068                           ;DS3231.c: 85: date->sec = _read(0);
  2069  06DF  3000               	movlw	0
  2070  06E0  3186  261A  3186   	fcall	__read
  2071  06E3  00FB               	movwf	??_read_date
  2072  06E4  087C               	movf	read_date@date,w
  2073  06E5  3E05               	addlw	5
  2074  06E6  0086               	movwf	6
  2075  06E7  0187               	clrf	7
  2076  06E8  087B               	movf	??_read_date,w
  2077  06E9  0081               	movwf	1
  2078  06EA                     l157:
  2079  06EA  0008               	return
  2080  06EB                     __end_of_read_date:
  2081                           
  2082                           	psect	text6
  2083  061A                     __ptext6:	
  2084 ;; *************** function __read *****************
  2085 ;; Defined at:
  2086 ;;		line 59 in file "DS3231.c"
  2087 ;; Parameters:    Size  Location     Type
  2088 ;;  address         1    wreg     unsigned char 
  2089 ;; Auto vars:     Size  Location     Type
  2090 ;;  address         1    9[COMMON] unsigned char 
  2091 ;;  data            1   10[COMMON] unsigned char 
  2092 ;; Return value:  Size  Location     Type
  2093 ;;                  1    wreg      unsigned char 
  2094 ;; Registers used:
  2095 ;;		wreg, status,2, status,0, pclath, cstack
  2096 ;; Tracked objects:
  2097 ;;		On entry : 0/0
  2098 ;;		On exit  : 0/0
  2099 ;;		Unchanged: 0/0
  2100 ;; Data sizes:     COMMON   BANK0   BANK1   BANK2   BANK3   BANK4
  2101 ;;      Params:         0       0       0       0       0       0
  2102 ;;      Locals:         2       0       0       0       0       0
  2103 ;;      Temps:          1       0       0       0       0       0
  2104 ;;      Totals:         3       0       0       0       0       0
  2105 ;;Total ram usage:        3 bytes
  2106 ;; Hardware stack levels used: 1
  2107 ;; Hardware stack levels required when called: 2
  2108 ;; This function calls:
  2109 ;;		_bcd_2_decimal
  2110 ;;		_i2c_read
  2111 ;;		_i2c_repeated_start
  2112 ;;		_i2c_start
  2113 ;;		_i2c_stop
  2114 ;;		_i2c_write
  2115 ;; This function is called by:
  2116 ;;		_read_date
  2117 ;; This function uses a non-reentrant model
  2118 ;;
  2119                           
  2120                           
  2121                           ;psect for function __read
  2122  061A                     __read:
  2123                           
  2124                           ;incstack = 0
  2125                           ; Regs used in __read: [wreg+status,2+status,0+pclath+cstack]
  2126                           ;__read@address stored from wreg
  2127  061A  00F9               	movwf	__read@address
  2128  061B                     l1211:
  2129                           
  2130                           ;DS3231.c: 60: uint8_t data;;DS3231.c: 61: i2c_start();
  2131  061B  3185  259D  3186   	fcall	_i2c_start
  2132                           
  2133                           ;DS3231.c: 62: i2c_write(0xD0);
  2134  061E  30D0               	movlw	208
  2135  061F  3185  25B3  3186   	fcall	_i2c_write
  2136                           
  2137                           ;DS3231.c: 63: i2c_write(address);
  2138  0622  0879               	movf	__read@address,w
  2139  0623  3185  25B3  3186   	fcall	_i2c_write
  2140                           
  2141                           ;DS3231.c: 65: i2c_repeated_start();
  2142  0626  3185  2593  3186   	fcall	_i2c_repeated_start
  2143                           
  2144                           ;DS3231.c: 67: i2c_write(0xD0 | 0x01);
  2145  0629  30D1               	movlw	209
  2146  062A  3185  25B3  3186   	fcall	_i2c_write
  2147                           
  2148                           ;DS3231.c: 68: data = bcd_2_decimal(i2c_read(1));
  2149  062D  3001               	movlw	1
  2150  062E  3186  2603  3186   	fcall	_i2c_read
  2151  0631  3185  25C3  3186   	fcall	_bcd_2_decimal
  2152  0634  00F8               	movwf	??__read
  2153  0635  0878               	movf	??__read,w
  2154  0636  00FA               	movwf	__read@data
  2155  0637                     l1213:
  2156                           
  2157                           ;DS3231.c: 69: i2c_stop();
  2158  0637  3185  2582  3186   	fcall	_i2c_stop
  2159                           
  2160                           ;DS3231.c: 71: return data;
  2161  063A  087A               	movf	__read@data,w
  2162  063B                     l154:
  2163  063B  0008               	return
  2164  063C                     __end_of__read:
  2165                           
  2166                           	psect	text7
  2167  05B3                     __ptext7:	
  2168 ;; *************** function _i2c_write *****************
  2169 ;; Defined at:
  2170 ;;		line 26 in file "i2c.c"
  2171 ;; Parameters:    Size  Location     Type
  2172 ;;  data            1    wreg     unsigned char 
  2173 ;; Auto vars:     Size  Location     Type
  2174 ;;  data            1    0[COMMON] unsigned char 
  2175 ;; Return value:  Size  Location     Type
  2176 ;;                  1    wreg      void 
  2177 ;; Registers used:
  2178 ;;		wreg, status,2, status,0, pclath, cstack
  2179 ;; Tracked objects:
  2180 ;;		On entry : 0/0
  2181 ;;		On exit  : 0/0
  2182 ;;		Unchanged: 0/0
  2183 ;; Data sizes:     COMMON   BANK0   BANK1   BANK2   BANK3   BANK4
  2184 ;;      Params:         0       0       0       0       0       0
  2185 ;;      Locals:         1       0       0       0       0       0
  2186 ;;      Temps:          0       0       0       0       0       0
  2187 ;;      Totals:         1       0       0       0       0       0
  2188 ;;Total ram usage:        1 bytes
  2189 ;; Hardware stack levels used: 1
  2190 ;; Hardware stack levels required when called: 1
  2191 ;; This function calls:
  2192 ;;		_i2c_wait
  2193 ;; This function is called by:
  2194 ;;		_write_date
  2195 ;;		__read
  2196 ;; This function uses a non-reentrant model
  2197 ;;
  2198                           
  2199                           
  2200                           ;psect for function _i2c_write
  2201  05B3                     _i2c_write:
  2202                           
  2203                           ;incstack = 0
  2204                           ; Regs used in _i2c_write: [wreg+status,2+status,0+pclath+cstack]
  2205                           ;i2c_write@data stored from wreg
  2206  05B3  00F0               	movwf	i2c_write@data
  2207  05B4                     l1075:
  2208                           
  2209                           ;i2c.c: 27: SSP2BUF = data;
  2210  05B4  0870               	movf	i2c_write@data,w
  2211  05B5  0024               	movlb	4	; select bank4
  2212  05B6  0099               	movwf	25	;volatile
  2213  05B7                     l118:	
  2214                           ;i2c.c: 28: while(SSP2STATbits.BF);
  2215                           
  2216  05B7  181C               	btfsc	28,0	;volatile
  2217  05B8  2DBA               	goto	u391
  2218  05B9  2DBB               	goto	u390
  2219  05BA                     u391:
  2220  05BA  2DB7               	goto	l118
  2221  05BB                     u390:
  2222  05BB                     l121:
  2223  05BB  1B1E               	btfsc	30,6	;volatile
  2224  05BC  2DBE               	goto	u401
  2225  05BD  2DBF               	goto	u400
  2226  05BE                     u401:
  2227  05BE  2DBB               	goto	l121
  2228  05BF                     u400:
  2229  05BF                     l1077:
  2230                           
  2231                           ;i2c.c: 30: i2c_wait();
  2232  05BF  3185  25A7  3185   	fcall	_i2c_wait
  2233  05C2                     l124:
  2234  05C2  0008               	return
  2235  05C3                     __end_of_i2c_write:
  2236                           
  2237                           	psect	text8
  2238  0582                     __ptext8:	
  2239 ;; *************** function _i2c_stop *****************
  2240 ;; Defined at:
  2241 ;;		line 15 in file "i2c.c"
  2242 ;; Parameters:    Size  Location     Type
  2243 ;;		None
  2244 ;; Auto vars:     Size  Location     Type
  2245 ;;		None
  2246 ;; Return value:  Size  Location     Type
  2247 ;;                  1    wreg      void 
  2248 ;; Registers used:
  2249 ;;		None
  2250 ;; Tracked objects:
  2251 ;;		On entry : 0/0
  2252 ;;		On exit  : 0/0
  2253 ;;		Unchanged: 0/0
  2254 ;; Data sizes:     COMMON   BANK0   BANK1   BANK2   BANK3   BANK4
  2255 ;;      Params:         0       0       0       0       0       0
  2256 ;;      Locals:         0       0       0       0       0       0
  2257 ;;      Temps:          0       0       0       0       0       0
  2258 ;;      Totals:         0       0       0       0       0       0
  2259 ;;Total ram usage:        0 bytes
  2260 ;; Hardware stack levels used: 1
  2261 ;; This function calls:
  2262 ;;		Nothing
  2263 ;; This function is called by:
  2264 ;;		_write_date
  2265 ;;		__read
  2266 ;; This function uses a non-reentrant model
  2267 ;;
  2268                           
  2269                           
  2270                           ;psect for function _i2c_stop
  2271  0582                     _i2c_stop:
  2272  0582                     l1069:	
  2273                           ;incstack = 0
  2274                           ; Regs used in _i2c_stop: []
  2275                           
  2276                           
  2277                           ;i2c.c: 16: SSP2CON2bits.PEN = 1;
  2278  0582  0024               	movlb	4	; select bank4
  2279  0583  151E               	bsf	30,2	;volatile
  2280  0584                     l106:	
  2281                           ;i2c.c: 17: while(SSP2CON2bits.PEN);
  2282                           
  2283  0584  191E               	btfsc	30,2	;volatile
  2284  0585  2D87               	goto	u371
  2285  0586  2D88               	goto	u370
  2286  0587                     u371:
  2287  0587  2D84               	goto	l106
  2288  0588                     u370:
  2289  0588                     l109:
  2290  0588  0008               	return
  2291  0589                     __end_of_i2c_stop:
  2292                           
  2293                           	psect	text9
  2294  059D                     __ptext9:	
  2295 ;; *************** function _i2c_start *****************
  2296 ;; Defined at:
  2297 ;;		line 9 in file "i2c.c"
  2298 ;; Parameters:    Size  Location     Type
  2299 ;;		None
  2300 ;; Auto vars:     Size  Location     Type
  2301 ;;		None
  2302 ;; Return value:  Size  Location     Type
  2303 ;;                  1    wreg      void 
  2304 ;; Registers used:
  2305 ;;		wreg, status,2, status,0, pclath, cstack
  2306 ;; Tracked objects:
  2307 ;;		On entry : 0/0
  2308 ;;		On exit  : 0/0
  2309 ;;		Unchanged: 0/0
  2310 ;; Data sizes:     COMMON   BANK0   BANK1   BANK2   BANK3   BANK4
  2311 ;;      Params:         0       0       0       0       0       0
  2312 ;;      Locals:         0       0       0       0       0       0
  2313 ;;      Temps:          0       0       0       0       0       0
  2314 ;;      Totals:         0       0       0       0       0       0
  2315 ;;Total ram usage:        0 bytes
  2316 ;; Hardware stack levels used: 1
  2317 ;; Hardware stack levels required when called: 1
  2318 ;; This function calls:
  2319 ;;		_i2c_wait
  2320 ;; This function is called by:
  2321 ;;		_write_date
  2322 ;;		__read
  2323 ;; This function uses a non-reentrant model
  2324 ;;
  2325                           
  2326                           
  2327                           ;psect for function _i2c_start
  2328  059D                     _i2c_start:
  2329  059D                     l1065:	
  2330                           ;incstack = 0
  2331                           ; Regs used in _i2c_start: [wreg+status,2+status,0+pclath+cstack]
  2332                           
  2333                           
  2334                           ;i2c.c: 10: i2c_wait();
  2335  059D  3185  25A7  3185   	fcall	_i2c_wait
  2336  05A0                     l1067:
  2337                           
  2338                           ;i2c.c: 11: SSP2CON2bits.SEN = 1;
  2339  05A0  0024               	movlb	4	; select bank4
  2340  05A1  141E               	bsf	30,0	;volatile
  2341  05A2                     l100:	
  2342                           ;i2c.c: 12: while(SSP2CON2bits.SEN);
  2343                           
  2344  05A2  181E               	btfsc	30,0	;volatile
  2345  05A3  2DA5               	goto	u361
  2346  05A4  2DA6               	goto	u360
  2347  05A5                     u361:
  2348  05A5  2DA2               	goto	l100
  2349  05A6                     u360:
  2350  05A6                     l103:
  2351  05A6  0008               	return
  2352  05A7                     __end_of_i2c_start:
  2353                           
  2354                           	psect	text10
  2355  0593                     __ptext10:	
  2356 ;; *************** function _i2c_repeated_start *****************
  2357 ;; Defined at:
  2358 ;;		line 20 in file "i2c.c"
  2359 ;; Parameters:    Size  Location     Type
  2360 ;;		None
  2361 ;; Auto vars:     Size  Location     Type
  2362 ;;		None
  2363 ;; Return value:  Size  Location     Type
  2364 ;;                  1    wreg      void 
  2365 ;; Registers used:
  2366 ;;		wreg, status,2, status,0, pclath, cstack
  2367 ;; Tracked objects:
  2368 ;;		On entry : 0/0
  2369 ;;		On exit  : 0/0
  2370 ;;		Unchanged: 0/0
  2371 ;; Data sizes:     COMMON   BANK0   BANK1   BANK2   BANK3   BANK4
  2372 ;;      Params:         0       0       0       0       0       0
  2373 ;;      Locals:         0       0       0       0       0       0
  2374 ;;      Temps:          0       0       0       0       0       0
  2375 ;;      Totals:         0       0       0       0       0       0
  2376 ;;Total ram usage:        0 bytes
  2377 ;; Hardware stack levels used: 1
  2378 ;; Hardware stack levels required when called: 1
  2379 ;; This function calls:
  2380 ;;		_i2c_wait
  2381 ;; This function is called by:
  2382 ;;		__read
  2383 ;; This function uses a non-reentrant model
  2384 ;;
  2385                           
  2386                           
  2387                           ;psect for function _i2c_repeated_start
  2388  0593                     _i2c_repeated_start:
  2389  0593                     l1071:	
  2390                           ;incstack = 0
  2391                           ; Regs used in _i2c_repeated_start: [wreg+status,2+status,0+pclath+cstack]
  2392                           
  2393                           
  2394                           ;i2c.c: 21: i2c_wait();
  2395  0593  3185  25A7  3185   	fcall	_i2c_wait
  2396  0596                     l1073:
  2397                           
  2398                           ;i2c.c: 22: SSP2CON2bits.RSEN = 1;
  2399  0596  0024               	movlb	4	; select bank4
  2400  0597  149E               	bsf	30,1	;volatile
  2401  0598                     l112:	
  2402                           ;i2c.c: 23: while(SSP2CON2bits.RSEN);
  2403                           
  2404  0598  189E               	btfsc	30,1	;volatile
  2405  0599  2D9B               	goto	u381
  2406  059A  2D9C               	goto	u380
  2407  059B                     u381:
  2408  059B  2D98               	goto	l112
  2409  059C                     u380:
  2410  059C                     l115:
  2411  059C  0008               	return
  2412  059D                     __end_of_i2c_repeated_start:
  2413                           
  2414                           	psect	text11
  2415  0603                     __ptext11:	
  2416 ;; *************** function _i2c_read *****************
  2417 ;; Defined at:
  2418 ;;		line 33 in file "i2c.c"
  2419 ;; Parameters:    Size  Location     Type
  2420 ;;  ack             1    wreg     unsigned char 
  2421 ;; Auto vars:     Size  Location     Type
  2422 ;;  ack             1    1[COMMON] unsigned char 
  2423 ;;  data            1    2[COMMON] unsigned char 
  2424 ;; Return value:  Size  Location     Type
  2425 ;;                  1    wreg      unsigned char 
  2426 ;; Registers used:
  2427 ;;		wreg, status,2, status,0, pclath, cstack
  2428 ;; Tracked objects:
  2429 ;;		On entry : 0/0
  2430 ;;		On exit  : 0/0
  2431 ;;		Unchanged: 0/0
  2432 ;; Data sizes:     COMMON   BANK0   BANK1   BANK2   BANK3   BANK4
  2433 ;;      Params:         0       0       0       0       0       0
  2434 ;;      Locals:         2       0       0       0       0       0
  2435 ;;      Temps:          1       0       0       0       0       0
  2436 ;;      Totals:         3       0       0       0       0       0
  2437 ;;Total ram usage:        3 bytes
  2438 ;; Hardware stack levels used: 1
  2439 ;; Hardware stack levels required when called: 1
  2440 ;; This function calls:
  2441 ;;		_i2c_wait
  2442 ;; This function is called by:
  2443 ;;		__read
  2444 ;; This function uses a non-reentrant model
  2445 ;;
  2446                           
  2447                           
  2448                           ;psect for function _i2c_read
  2449  0603                     _i2c_read:
  2450                           
  2451                           ;incstack = 0
  2452                           ; Regs used in _i2c_read: [wreg+status,2+status,0+pclath+cstack]
  2453                           ;i2c_read@ack stored from wreg
  2454  0603  00F1               	movwf	i2c_read@ack
  2455  0604                     l1079:
  2456                           
  2457                           ;i2c.c: 34: uint8_t data;;i2c.c: 36: SSP2CON2bits.ACKDT = ack;
  2458  0604  0C71               	rrf	i2c_read@ack,w
  2459  0605  0024               	movlb	4	; select bank4
  2460  0606  1C03               	skipc
  2461  0607  129E               	bcf	30,5	;volatile
  2462  0608  1803               	skipnc
  2463  0609  169E               	bsf	30,5	;volatile
  2464  060A                     l1081:
  2465                           
  2466                           ;i2c.c: 37: SSP2CON2bits.RCEN = 1;
  2467  060A  159E               	bsf	30,3	;volatile
  2468  060B                     l127:	
  2469                           ;i2c.c: 38: while(!SSP2STATbits.BF);
  2470                           
  2471  060B  1C1C               	btfss	28,0	;volatile
  2472  060C  2E0E               	goto	u411
  2473  060D  2E0F               	goto	u410
  2474  060E                     u411:
  2475  060E  2E0B               	goto	l127
  2476  060F                     u410:
  2477  060F                     l129:
  2478                           
  2479                           ;i2c.c: 39: SSP2CON2bits.ACKEN = 1;
  2480  060F  161E               	bsf	30,4	;volatile
  2481  0610                     l1083:
  2482                           
  2483                           ;i2c.c: 40: data = SSP2BUF;
  2484  0610  0819               	movf	25,w	;volatile
  2485  0611  00F0               	movwf	??_i2c_read
  2486  0612  0870               	movf	??_i2c_read,w
  2487  0613  00F2               	movwf	i2c_read@data
  2488  0614                     l1085:
  2489                           
  2490                           ;i2c.c: 41: SSP2CON1bits.SSPOV = 0;
  2491  0614  131D               	bcf	29,6	;volatile
  2492  0615                     l1087:
  2493                           
  2494                           ;i2c.c: 42: i2c_wait();
  2495  0615  3185  25A7  3186   	fcall	_i2c_wait
  2496  0618                     l1089:
  2497                           
  2498                           ;i2c.c: 44: return data;
  2499  0618  0872               	movf	i2c_read@data,w
  2500  0619                     l130:
  2501  0619  0008               	return
  2502  061A                     __end_of_i2c_read:
  2503                           
  2504                           	psect	text12
  2505  05A7                     __ptext12:	
  2506 ;; *************** function _i2c_wait *****************
  2507 ;; Defined at:
  2508 ;;		line 5 in file "i2c.c"
  2509 ;; Parameters:    Size  Location     Type
  2510 ;;		None
  2511 ;; Auto vars:     Size  Location     Type
  2512 ;;		None
  2513 ;; Return value:  Size  Location     Type
  2514 ;;                  1    wreg      void 
  2515 ;; Registers used:
  2516 ;;		wreg, status,2
  2517 ;; Tracked objects:
  2518 ;;		On entry : 0/0
  2519 ;;		On exit  : 0/0
  2520 ;;		Unchanged: 0/0
  2521 ;; Data sizes:     COMMON   BANK0   BANK1   BANK2   BANK3   BANK4
  2522 ;;      Params:         0       0       0       0       0       0
  2523 ;;      Locals:         0       0       0       0       0       0
  2524 ;;      Temps:          0       0       0       0       0       0
  2525 ;;      Totals:         0       0       0       0       0       0
  2526 ;;Total ram usage:        0 bytes
  2527 ;; Hardware stack levels used: 1
  2528 ;; This function calls:
  2529 ;;		Nothing
  2530 ;; This function is called by:
  2531 ;;		_i2c_start
  2532 ;;		_i2c_repeated_start
  2533 ;;		_i2c_write
  2534 ;;		_i2c_read
  2535 ;; This function uses a non-reentrant model
  2536 ;;
  2537                           
  2538                           
  2539                           ;psect for function _i2c_wait
  2540  05A7                     _i2c_wait:
  2541  05A7                     l1045:	
  2542                           ;incstack = 0
  2543                           ; Regs used in _i2c_wait: [wreg+status,2]
  2544                           
  2545  05A7                     l1047:	
  2546                           ;i2c.c: 6: while((SSP2CON2 & 0x1F) || (SSP2STAT & 0x04));
  2547                           
  2548  05A7  0024               	movlb	4	; select bank4
  2549  05A8  081E               	movf	30,w	;volatile
  2550  05A9  391F               	andlw	31
  2551  05AA  1D03               	btfss	3,2
  2552  05AB  2DAD               	goto	u321
  2553  05AC  2DAE               	goto	u320
  2554  05AD                     u321:
  2555  05AD  2DA7               	goto	l1047
  2556  05AE                     u320:
  2557  05AE                     l1049:
  2558  05AE  191C               	btfsc	28,2	;volatile
  2559  05AF  2DB1               	goto	u331
  2560  05B0  2DB2               	goto	u330
  2561  05B1                     u331:
  2562  05B1  2DA7               	goto	l1047
  2563  05B2                     u330:
  2564  05B2                     l97:
  2565  05B2  0008               	return
  2566  05B3                     __end_of_i2c_wait:
  2567                           
  2568                           	psect	text13
  2569  05C3                     __ptext13:	
  2570 ;; *************** function _bcd_2_decimal *****************
  2571 ;; Defined at:
  2572 ;;		line 19 in file "DS3231.c"
  2573 ;; Parameters:    Size  Location     Type
  2574 ;;  number          1    wreg     unsigned char 
  2575 ;; Auto vars:     Size  Location     Type
  2576 ;;  number          1    7[COMMON] unsigned char 
  2577 ;; Return value:  Size  Location     Type
  2578 ;;                  1    wreg      unsigned char 
  2579 ;; Registers used:
  2580 ;;		wreg, status,2, status,0, pclath, cstack
  2581 ;; Tracked objects:
  2582 ;;		On entry : 0/0
  2583 ;;		On exit  : 0/0
  2584 ;;		Unchanged: 0/0
  2585 ;; Data sizes:     COMMON   BANK0   BANK1   BANK2   BANK3   BANK4
  2586 ;;      Params:         0       0       0       0       0       0
  2587 ;;      Locals:         1       0       0       0       0       0
  2588 ;;      Temps:          3       0       0       0       0       0
  2589 ;;      Totals:         4       0       0       0       0       0
  2590 ;;Total ram usage:        4 bytes
  2591 ;; Hardware stack levels used: 1
  2592 ;; Hardware stack levels required when called: 1
  2593 ;; This function calls:
  2594 ;;		___bmul
  2595 ;; This function is called by:
  2596 ;;		__read
  2597 ;; This function uses a non-reentrant model
  2598 ;;
  2599                           
  2600                           
  2601                           ;psect for function _bcd_2_decimal
  2602  05C3                     _bcd_2_decimal:
  2603                           
  2604                           ;incstack = 0
  2605                           ; Regs used in _bcd_2_decimal: [wreg+status,2+status,0+pclath+cstack]
  2606                           ;bcd_2_decimal@number stored from wreg
  2607  05C3  00F7               	movwf	bcd_2_decimal@number
  2608  05C4                     l1093:
  2609                           
  2610                           ;DS3231.c: 20: return ((number >> 4) * 10 + (number & 0x0F));
  2611  05C4  300F               	movlw	15
  2612  05C5  0577               	andwf	bcd_2_decimal@number,w
  2613  05C6  00F4               	movwf	??_bcd_2_decimal
  2614  05C7  300A               	movlw	10
  2615  05C8  00F5               	movwf	??_bcd_2_decimal+1
  2616  05C9  0875               	movf	??_bcd_2_decimal+1,w
  2617  05CA  00F0               	movwf	___bmul@multiplicand
  2618  05CB  0877               	movf	bcd_2_decimal@number,w
  2619  05CC  00F6               	movwf	??_bcd_2_decimal+2
  2620  05CD  3004               	movlw	4
  2621  05CE                     u425:
  2622  05CE  36F6               	lsrf	??_bcd_2_decimal+2,f
  2623  05CF  0B89               	decfsz	9,f
  2624  05D0  2DCE               	goto	u425
  2625  05D1  0876               	movf	??_bcd_2_decimal+2,w
  2626  05D2  3185  25D7  3185   	fcall	___bmul
  2627  05D5  0774               	addwf	??_bcd_2_decimal,w
  2628  05D6                     l145:
  2629  05D6  0008               	return
  2630  05D7                     __end_of_bcd_2_decimal:
  2631                           
  2632                           	psect	text14
  2633  05D7                     __ptext14:	
  2634 ;; *************** function ___bmul *****************
  2635 ;; Defined at:
  2636 ;;		line 4 in file "C:\Program Files\Microchip\xc8\v2.32\pic\sources\c90\common\Umul8.c"
  2637 ;; Parameters:    Size  Location     Type
  2638 ;;  multiplier      1    wreg     unsigned char 
  2639 ;;  multiplicand    1    0[COMMON] unsigned char 
  2640 ;; Auto vars:     Size  Location     Type
  2641 ;;  multiplier      1    3[COMMON] unsigned char 
  2642 ;;  product         1    2[COMMON] unsigned char 
  2643 ;; Return value:  Size  Location     Type
  2644 ;;                  1    wreg      unsigned char 
  2645 ;; Registers used:
  2646 ;;		wreg, status,2, status,0
  2647 ;; Tracked objects:
  2648 ;;		On entry : 0/0
  2649 ;;		On exit  : 0/0
  2650 ;;		Unchanged: 0/0
  2651 ;; Data sizes:     COMMON   BANK0   BANK1   BANK2   BANK3   BANK4
  2652 ;;      Params:         1       0       0       0       0       0
  2653 ;;      Locals:         2       0       0       0       0       0
  2654 ;;      Temps:          1       0       0       0       0       0
  2655 ;;      Totals:         4       0       0       0       0       0
  2656 ;;Total ram usage:        4 bytes
  2657 ;; Hardware stack levels used: 1
  2658 ;; This function calls:
  2659 ;;		Nothing
  2660 ;; This function is called by:
  2661 ;;		_bcd_2_decimal
  2662 ;; This function uses a non-reentrant model
  2663 ;;
  2664                           
  2665                           
  2666                           ;psect for function ___bmul
  2667  05D7                     ___bmul:
  2668                           
  2669                           ;incstack = 0
  2670                           ; Regs used in ___bmul: [wreg+status,2+status,0]
  2671                           ;___bmul@multiplier stored from wreg
  2672  05D7  00F3               	movwf	___bmul@multiplier
  2673  05D8                     l1051:
  2674  05D8  01F2               	clrf	___bmul@product
  2675  05D9                     l1053:
  2676  05D9  1C73               	btfss	___bmul@multiplier,0
  2677  05DA  2DDC               	goto	u341
  2678  05DB  2DDD               	goto	u340
  2679  05DC                     u341:
  2680  05DC  2DE1               	goto	l1057
  2681  05DD                     u340:
  2682  05DD                     l1055:
  2683  05DD  0870               	movf	___bmul@multiplicand,w
  2684  05DE  00F1               	movwf	??___bmul
  2685  05DF  0871               	movf	??___bmul,w
  2686  05E0  07F2               	addwf	___bmul@product,f
  2687  05E1                     l1057:
  2688  05E1  1003               	clrc
  2689  05E2  0DF0               	rlf	___bmul@multiplicand,f
  2690  05E3                     l1059:
  2691  05E3  1003               	clrc
  2692  05E4  0CF3               	rrf	___bmul@multiplier,f
  2693  05E5  0873               	movf	___bmul@multiplier,w
  2694  05E6  1D03               	btfss	3,2
  2695  05E7  2DE9               	goto	u351
  2696  05E8  2DEA               	goto	u350
  2697  05E9                     u351:
  2698  05E9  2DD9               	goto	l1053
  2699  05EA                     u350:
  2700  05EA                     l1061:
  2701  05EA  0872               	movf	___bmul@product,w
  2702  05EB                     l333:
  2703  05EB  0008               	return
  2704  05EC                     __end_of___bmul:
  2705                           
  2706                           	psect	text15
  2707  0589                     __ptext15:	
  2708 ;; *************** function _SYSTEM_Initialize *****************
  2709 ;; Defined at:
  2710 ;;		line 50 in file "mcc_generated_files/mcc.c"
  2711 ;; Parameters:    Size  Location     Type
  2712 ;;		None
  2713 ;; Auto vars:     Size  Location     Type
  2714 ;;		None
  2715 ;; Return value:  Size  Location     Type
  2716 ;;                  1    wreg      void 
  2717 ;; Registers used:
  2718 ;;		wreg, status,2, status,0, pclath, cstack
  2719 ;; Tracked objects:
  2720 ;;		On entry : 0/0
  2721 ;;		On exit  : 0/0
  2722 ;;		Unchanged: 0/0
  2723 ;; Data sizes:     COMMON   BANK0   BANK1   BANK2   BANK3   BANK4
  2724 ;;      Params:         0       0       0       0       0       0
  2725 ;;      Locals:         0       0       0       0       0       0
  2726 ;;      Temps:          0       0       0       0       0       0
  2727 ;;      Totals:         0       0       0       0       0       0
  2728 ;;Total ram usage:        0 bytes
  2729 ;; Hardware stack levels used: 1
  2730 ;; Hardware stack levels required when called: 1
  2731 ;; This function calls:
  2732 ;;		_OSCILLATOR_Initialize
  2733 ;;		_PIN_MANAGER_Initialize
  2734 ;;		_WDT_Initialize
  2735 ;; This function is called by:
  2736 ;;		_main
  2737 ;; This function uses a non-reentrant model
  2738 ;;
  2739                           
  2740                           
  2741                           ;psect for function _SYSTEM_Initialize
  2742  0589                     _SYSTEM_Initialize:
  2743  0589                     l1217:	
  2744                           ;incstack = 0
  2745                           ; Regs used in _SYSTEM_Initialize: [wreg+status,2+status,0+pclath+cstack]
  2746                           
  2747                           
  2748                           ;mcc.c: 53: PIN_MANAGER_Initialize();
  2749  0589  3185  25EC  3185   	fcall	_PIN_MANAGER_Initialize
  2750                           
  2751                           ;mcc.c: 54: OSCILLATOR_Initialize();
  2752  058C  3185  257B  3185   	fcall	_OSCILLATOR_Initialize
  2753                           
  2754                           ;mcc.c: 55: WDT_Initialize();
  2755  058F  3185  2577  3185   	fcall	_WDT_Initialize
  2756  0592                     l45:
  2757  0592  0008               	return
  2758  0593                     __end_of_SYSTEM_Initialize:
  2759                           
  2760                           	psect	text16
  2761  0577                     __ptext16:	
  2762 ;; *************** function _WDT_Initialize *****************
  2763 ;; Defined at:
  2764 ;;		line 68 in file "mcc_generated_files/mcc.c"
  2765 ;; Parameters:    Size  Location     Type
  2766 ;;		None
  2767 ;; Auto vars:     Size  Location     Type
  2768 ;;		None
  2769 ;; Return value:  Size  Location     Type
  2770 ;;                  1    wreg      void 
  2771 ;; Registers used:
  2772 ;;		wreg
  2773 ;; Tracked objects:
  2774 ;;		On entry : 0/0
  2775 ;;		On exit  : 0/0
  2776 ;;		Unchanged: 0/0
  2777 ;; Data sizes:     COMMON   BANK0   BANK1   BANK2   BANK3   BANK4
  2778 ;;      Params:         0       0       0       0       0       0
  2779 ;;      Locals:         0       0       0       0       0       0
  2780 ;;      Temps:          0       0       0       0       0       0
  2781 ;;      Totals:         0       0       0       0       0       0
  2782 ;;Total ram usage:        0 bytes
  2783 ;; Hardware stack levels used: 1
  2784 ;; This function calls:
  2785 ;;		Nothing
  2786 ;; This function is called by:
  2787 ;;		_SYSTEM_Initialize
  2788 ;; This function uses a non-reentrant model
  2789 ;;
  2790                           
  2791                           
  2792                           ;psect for function _WDT_Initialize
  2793  0577                     _WDT_Initialize:
  2794  0577                     l1205:	
  2795                           ;incstack = 0
  2796                           ; Regs used in _WDT_Initialize: [wreg]
  2797                           
  2798                           
  2799                           ;mcc.c: 71: WDTCON = 0x16;
  2800  0577  3016               	movlw	22
  2801  0578  0021               	movlb	1	; select bank1
  2802  0579  0097               	movwf	23	;volatile
  2803  057A                     l51:
  2804  057A  0008               	return
  2805  057B                     __end_of_WDT_Initialize:
  2806                           
  2807                           	psect	text17
  2808  05EC                     __ptext17:	
  2809 ;; *************** function _PIN_MANAGER_Initialize *****************
  2810 ;; Defined at:
  2811 ;;		line 55 in file "mcc_generated_files/pin_manager.c"
  2812 ;; Parameters:    Size  Location     Type
  2813 ;;		None
  2814 ;; Auto vars:     Size  Location     Type
  2815 ;;		None
  2816 ;; Return value:  Size  Location     Type
  2817 ;;                  1    wreg      void 
  2818 ;; Registers used:
  2819 ;;		wreg, status,2
  2820 ;; Tracked objects:
  2821 ;;		On entry : 0/0
  2822 ;;		On exit  : 0/0
  2823 ;;		Unchanged: 0/0
  2824 ;; Data sizes:     COMMON   BANK0   BANK1   BANK2   BANK3   BANK4
  2825 ;;      Params:         0       0       0       0       0       0
  2826 ;;      Locals:         0       0       0       0       0       0
  2827 ;;      Temps:          0       0       0       0       0       0
  2828 ;;      Totals:         0       0       0       0       0       0
  2829 ;;Total ram usage:        0 bytes
  2830 ;; Hardware stack levels used: 1
  2831 ;; This function calls:
  2832 ;;		Nothing
  2833 ;; This function is called by:
  2834 ;;		_SYSTEM_Initialize
  2835 ;; This function uses a non-reentrant model
  2836 ;;
  2837                           
  2838                           
  2839                           ;psect for function _PIN_MANAGER_Initialize
  2840  05EC                     _PIN_MANAGER_Initialize:
  2841  05EC                     l1179:	
  2842                           ;incstack = 0
  2843                           ; Regs used in _PIN_MANAGER_Initialize: [wreg+status,2]
  2844                           
  2845                           
  2846                           ;pin_manager.c: 60: LATA = 0x00;
  2847  05EC  0022               	movlb	2	; select bank2
  2848  05ED  018C               	clrf	12	;volatile
  2849                           
  2850                           ;pin_manager.c: 61: LATB = 0x00;
  2851  05EE  018D               	clrf	13	;volatile
  2852  05EF                     l1181:
  2853                           
  2854                           ;pin_manager.c: 66: TRISA = 0xFF;
  2855  05EF  30FF               	movlw	255
  2856  05F0  0021               	movlb	1	; select bank1
  2857  05F1  008C               	movwf	12	;volatile
  2858  05F2                     l1183:
  2859                           
  2860                           ;pin_manager.c: 67: TRISB = 0xFF;
  2861  05F2  30FF               	movlw	255
  2862  05F3  008D               	movwf	13	;volatile
  2863  05F4                     l1185:
  2864                           
  2865                           ;pin_manager.c: 72: ANSELB = 0xDA;
  2866  05F4  30DA               	movlw	218
  2867  05F5  0023               	movlb	3	; select bank3
  2868  05F6  008D               	movwf	13	;volatile
  2869  05F7                     l1187:
  2870                           
  2871                           ;pin_manager.c: 73: ANSELA = 0x10;
  2872  05F7  3010               	movlw	16
  2873  05F8  008C               	movwf	12	;volatile
  2874  05F9                     l1189:
  2875                           
  2876                           ;pin_manager.c: 78: WPUB = 0x24;
  2877  05F9  3024               	movlw	36
  2878  05FA  0024               	movlb	4	; select bank4
  2879  05FB  008D               	movwf	13	;volatile
  2880  05FC                     l1191:
  2881                           
  2882                           ;pin_manager.c: 79: WPUA = 0x00;
  2883  05FC  018C               	clrf	12	;volatile
  2884  05FD                     l1193:
  2885                           
  2886                           ;pin_manager.c: 80: OPTION_REGbits.nWPUEN = 0;
  2887  05FD  0021               	movlb	1	; select bank1
  2888  05FE  1395               	bcf	21,7	;volatile
  2889  05FF                     l1195:
  2890                           
  2891                           ;pin_manager.c: 86: APFCON0 = 0x00;
  2892  05FF  0022               	movlb	2	; select bank2
  2893  0600  019D               	clrf	29	;volatile
  2894  0601                     l1197:
  2895                           
  2896                           ;pin_manager.c: 87: APFCON1 = 0x00;
  2897  0601  019E               	clrf	30	;volatile
  2898  0602                     l25:
  2899  0602  0008               	return
  2900  0603                     __end_of_PIN_MANAGER_Initialize:
  2901                           
  2902                           	psect	text18
  2903  057B                     __ptext18:	
  2904 ;; *************** function _OSCILLATOR_Initialize *****************
  2905 ;; Defined at:
  2906 ;;		line 58 in file "mcc_generated_files/mcc.c"
  2907 ;; Parameters:    Size  Location     Type
  2908 ;;		None
  2909 ;; Auto vars:     Size  Location     Type
  2910 ;;		None
  2911 ;; Return value:  Size  Location     Type
  2912 ;;                  1    wreg      void 
  2913 ;; Registers used:
  2914 ;;		wreg, status,2
  2915 ;; Tracked objects:
  2916 ;;		On entry : 0/0
  2917 ;;		On exit  : 0/0
  2918 ;;		Unchanged: 0/0
  2919 ;; Data sizes:     COMMON   BANK0   BANK1   BANK2   BANK3   BANK4
  2920 ;;      Params:         0       0       0       0       0       0
  2921 ;;      Locals:         0       0       0       0       0       0
  2922 ;;      Temps:          0       0       0       0       0       0
  2923 ;;      Totals:         0       0       0       0       0       0
  2924 ;;Total ram usage:        0 bytes
  2925 ;; Hardware stack levels used: 1
  2926 ;; This function calls:
  2927 ;;		Nothing
  2928 ;; This function is called by:
  2929 ;;		_SYSTEM_Initialize
  2930 ;; This function uses a non-reentrant model
  2931 ;;
  2932                           
  2933                           
  2934                           ;psect for function _OSCILLATOR_Initialize
  2935  057B                     _OSCILLATOR_Initialize:
  2936  057B                     l1199:	
  2937                           ;incstack = 0
  2938                           ; Regs used in _OSCILLATOR_Initialize: [wreg+status,2]
  2939                           
  2940                           
  2941                           ;mcc.c: 61: OSCCON = 0x70;
  2942  057B  3070               	movlw	112
  2943  057C  0021               	movlb	1	; select bank1
  2944  057D  0099               	movwf	25	;volatile
  2945  057E                     l1201:
  2946                           
  2947                           ;mcc.c: 63: OSCTUNE = 0x00;
  2948  057E  0198               	clrf	24	;volatile
  2949  057F                     l1203:
  2950                           
  2951                           ;mcc.c: 65: BORCON = 0x00;
  2952  057F  0022               	movlb	2	; select bank2
  2953  0580  0196               	clrf	22	;volatile
  2954  0581                     l48:
  2955  0581  0008               	return
  2956  0582                     __end_of_OSCILLATOR_Initialize:
  2957  007E                     btemp	set	126	;btemp
  2958  007E                     wtemp0	set	126
  2959                           
  2960                           	psect	config
  2961                           
  2962                           ;Config register CONFIG1 @ 0x8007
  2963                           ;	Oscillator Selection
  2964                           ;	FOSC = INTOSC, INTOSC oscillator: I/O function on CLKIN pin
  2965                           ;	Watchdog Timer Enable
  2966                           ;	WDTE = OFF, WDT disabled
  2967                           ;	Power-up Timer Enable
  2968                           ;	PWRTE = OFF, PWRT disabled
  2969                           ;	MCLR Pin Function Select
  2970                           ;	MCLRE = ON, MCLR/VPP pin function is MCLR
  2971                           ;	Flash Program Memory Code Protection
  2972                           ;	CP = OFF, Program memory code protection is disabled
  2973                           ;	Data Memory Code Protection
  2974                           ;	CPD = OFF, Data memory code protection is disabled
  2975                           ;	Brown-out Reset Enable
  2976                           ;	BOREN = ON, Brown-out Reset enabled
  2977                           ;	Clock Out Enable
  2978                           ;	CLKOUTEN = OFF, CLKOUT function is disabled. I/O or oscillator function on the CLKOUT 
      +                          pin
  2979                           ;	Internal/External Switchover
  2980                           ;	IESO = ON, Internal/External Switchover mode is enabled
  2981                           ;	Fail-Safe Clock Monitor Enable
  2982                           ;	FCMEN = ON, Fail-Safe Clock Monitor is enabled
  2983  8007                     	org	32775
  2984  8007  3FE4               	dw	16356
  2985                           
  2986                           ;Config register CONFIG2 @ 0x8008
  2987                           ;	Flash Memory Self-Write Protection
  2988                           ;	WRT = OFF, Write protection off
  2989                           ;	PLL Enable
  2990                           ;	PLLEN = OFF, 4x PLL disabled
  2991                           ;	Stack Overflow/Underflow Reset Enable
  2992                           ;	STVREN = ON, Stack Overflow or Underflow will cause a Reset
  2993                           ;	Brown-out Reset Voltage Selection
  2994                           ;	BORV = LO, Brown-out Reset Voltage (Vbor), low trip point selected.
  2995                           ;	Low-Voltage Programming Enable
  2996                           ;	LVP = OFF, High-voltage on MCLR/VPP must be used for programming
  2997  8008                     	org	32776
  2998  8008  1EFF               	dw	7935

Data Sizes:
    Strings     0
    Constant    0
    Data        0
    BSS         0
    Persistent  32
    Stack       0

Auto Spaces:
    Space          Size  Autos    Used
    COMMON           14     14      14
    BANK0            80     13      13
    BANK1            80      0       0
    BANK2            80      0       0
    BANK3            80      0       0
    BANK4            48      0       0

Pointer List with Targets:

    read_date@date	PTR struct Date size(1) Largest target is 6
		 -> main@date(BANK0[6]), 

    write_date@date	PTR struct Date size(1) Largest target is 6
		 -> main@date(BANK0[6]), 


Critical Paths under _main in COMMON

    _main->_read_date
    _main->_write_date
    _write_date->_decimal_2_bcd
    _decimal_2_bcd->___awdiv
    _read_date->__read
    __read->_bcd_2_decimal
    _bcd_2_decimal->___bmul

Critical Paths under _main in BANK0

    _write_date->_decimal_2_bcd

Critical Paths under _main in BANK1

    None.

Critical Paths under _main in BANK2

    None.

Critical Paths under _main in BANK3

    None.

Critical Paths under _main in BANK4

    None.

Call Graph Tables:

 ---------------------------------------------------------------------------------
 (Depth) Function   	        Calls       Base Space   Used Autos Params    Refs
 ---------------------------------------------------------------------------------
 (0) _main                                                 7     7      0    1858
                                             13 COMMON     1     1      0
                                              7 BANK0      6     6      0
                  _SYSTEM_Initialize
                          _read_date
                         _write_date
 ---------------------------------------------------------------------------------
 (1) _write_date                                           3     3      0    1131
                                             10 COMMON     3     3      0
                      _decimal_2_bcd
                          _i2c_start
                           _i2c_stop
                          _i2c_write
 ---------------------------------------------------------------------------------
 (2) _decimal_2_bcd                                        8     8      0     944
                                              9 COMMON     1     1      0
                                              0 BANK0      7     7      0
                            ___awdiv
                            ___awmod
 ---------------------------------------------------------------------------------
 (3) ___awmod                                              7     3      4     448
                                              0 COMMON     7     3      4
 ---------------------------------------------------------------------------------
 (3) ___awdiv                                              9     5      4     452
                                              0 COMMON     9     5      4
 ---------------------------------------------------------------------------------
 (1) _read_date                                            2     2      0     522
                                             11 COMMON     2     2      0
                              __read
 ---------------------------------------------------------------------------------
 (2) __read                                                3     3      0     324
                                              8 COMMON     3     3      0
                      _bcd_2_decimal
                           _i2c_read
                 _i2c_repeated_start
                          _i2c_start
                           _i2c_stop
                          _i2c_write
 ---------------------------------------------------------------------------------
 (2) _i2c_write                                            1     1      0      22
                                              0 COMMON     1     1      0
                           _i2c_wait
 ---------------------------------------------------------------------------------
 (2) _i2c_stop                                             0     0      0       0
 ---------------------------------------------------------------------------------
 (2) _i2c_start                                            0     0      0       0
                           _i2c_wait
 ---------------------------------------------------------------------------------
 (3) _i2c_repeated_start                                   0     0      0       0
                           _i2c_wait
 ---------------------------------------------------------------------------------
 (3) _i2c_read                                             3     3      0      45
                                              0 COMMON     3     3      0
                           _i2c_wait
 ---------------------------------------------------------------------------------
 (3) _i2c_wait                                             0     0      0       0
 ---------------------------------------------------------------------------------
 (3) _bcd_2_decimal                                        4     4      0     212
                                              4 COMMON     4     4      0
                             ___bmul
 ---------------------------------------------------------------------------------
 (4) ___bmul                                               4     3      1     168
                                              0 COMMON     4     3      1
 ---------------------------------------------------------------------------------
 (1) _SYSTEM_Initialize                                    0     0      0       0
              _OSCILLATOR_Initialize
             _PIN_MANAGER_Initialize
                     _WDT_Initialize
 ---------------------------------------------------------------------------------
 (2) _WDT_Initialize                                       0     0      0       0
 ---------------------------------------------------------------------------------
 (2) _PIN_MANAGER_Initialize                               0     0      0       0
 ---------------------------------------------------------------------------------
 (2) _OSCILLATOR_Initialize                                0     0      0       0
 ---------------------------------------------------------------------------------
 Estimated maximum stack depth 4
 ---------------------------------------------------------------------------------

 Call Graph Graphs:

 _main (ROOT)
   _SYSTEM_Initialize
     _OSCILLATOR_Initialize
     _PIN_MANAGER_Initialize
     _WDT_Initialize
   _read_date
     __read
       _bcd_2_decimal
         ___bmul
       _i2c_read
         _i2c_wait
       _i2c_repeated_start
         _i2c_wait
       _i2c_start
         _i2c_wait
       _i2c_stop
       _i2c_write
         _i2c_wait
   _write_date
     _decimal_2_bcd
       ___awdiv
       ___awmod
     _i2c_start
     _i2c_stop
     _i2c_write

 Address spaces:
Name               Size   Autos  Total    Cost      Usage
BIGRAM             170      0       0       0        0.0%
EEDATA             100      0       0       0        0.0%
NULL                 0      0       0       0        0.0%
CODE                 0      0       0       0        0.0%
BITCOMMON            E      0       0       1        0.0%
BITSFR0              0      0       0       1        0.0%
SFR0                 0      0       0       1        0.0%
COMMON               E      E       E       2      100.0%
BITSFR1              0      0       0       2        0.0%
SFR1                 0      0       0       2        0.0%
BITSFR2              0      0       0       3        0.0%
SFR2                 0      0       0       3        0.0%
STACK                0      0       0       3        0.0%
BITSFR3              0      0       0       4        0.0%
SFR3                 0      0       0       4        0.0%
ABS                  0      0       0       4        0.0%
BITBANK0            50      0       0       5        0.0%
BITSFR4              0      0       0       5        0.0%
SFR4                 0      0       0       5        0.0%
BANK0               50      D       D       6       16.2%
BITSFR5              0      0       0       6        0.0%
SFR5                 0      0       0       6        0.0%
BITBANK1            50      0       0       7        0.0%
BITSFR6              0      0       0       7        0.0%
SFR6                 0      0       0       7        0.0%
BANK1               50      0       0       8        0.0%
BITSFR7              0      0       0       8        0.0%
SFR7                 0      0       0       8        0.0%
BITBANK2            50      0       0       9        0.0%
BITSFR8              0      0       0       9        0.0%
SFR8                 0      0       0       9        0.0%
BANK2               50      0       0      10        0.0%
BITSFR9              0      0       0      10        0.0%
SFR9                 0      0       0      10        0.0%
BITBANK3            50      0       0      11        0.0%
BITSFR10             0      0       0      11        0.0%
SFR10                0      0       0      11        0.0%
BANK3               50      0       0      12        0.0%
BITSFR11             0      0       0      12        0.0%
SFR11                0      0       0      12        0.0%
BITBANK4            30      0       0      13        0.0%
BITSFR12             0      0       0      13        0.0%
SFR12                0      0       0      13        0.0%
BANK4               30      0       0      14        0.0%
BITSFR13             0      0       0      14        0.0%
SFR13                0      0       0      14        0.0%
BITSFR14             0      0       0      15        0.0%
SFR14                0      0       0      15        0.0%
DATA                 0      0       0      15        0.0%
BITSFR15             0      0       0      16        0.0%
SFR15                0      0       0      16        0.0%
BITSFR16             0      0       0      17        0.0%
SFR16                0      0       0      17        0.0%
BITSFR17             0      0       0      18        0.0%
SFR17                0      0       0      18        0.0%
BITSFR18             0      0       0      19        0.0%
SFR18                0      0       0      19        0.0%
BITSFR19             0      0       0      20        0.0%
SFR19                0      0       0      20        0.0%
BITSFR20             0      0       0      21        0.0%
SFR20                0      0       0      21        0.0%
BITSFR21             0      0       0      22        0.0%
SFR21                0      0       0      22        0.0%
BITSFR22             0      0       0      23        0.0%
SFR22                0      0       0      23        0.0%
BITSFR23             0      0       0      24        0.0%
SFR23                0      0       0      24        0.0%
BITSFR24             0      0       0      25        0.0%
SFR24                0      0       0      25        0.0%
BITSFR25             0      0       0      26        0.0%
SFR25                0      0       0      26        0.0%
BITSFR26             0      0       0      27        0.0%
SFR26                0      0       0      27        0.0%
BITSFR27             0      0       0      28        0.0%
SFR27                0      0       0      28        0.0%
BITSFR28             0      0       0      29        0.0%
SFR28                0      0       0      29        0.0%
BITSFR29             0      0       0      30        0.0%
SFR29                0      0       0      30        0.0%
BITSFR30             0      0       0      31        0.0%
SFR30                0      0       0      31        0.0%
BITSFR31             0      0       0      32        0.0%
SFR31                0      0       0      32        0.0%


Microchip Technology PIC Macro Assembler V2.32 build 20210201212658 
Symbol Table                                                                                   Sun Feb 28 00:48:11 2021

                 ___bmul@product 0072                               l25 0602                               l51 057A  
                             l45 0592                               l48 0581                               l97 05B2  
                   ___awdiv@sign 0076            __end_of_decimal_2_bcd 066A                              l100 05A2  
                            l103 05A6                              l112 0598                              l121 05BB  
                            l130 0619                              l106 0584                              l115 059C  
                            l124 05C2                              l109 0588                              l118 05B7  
                            l127 060B                              l151 07FC                              l145 05D6  
                            l129 060F                              l154 063B                              l148 0669  
                            l333 05EB                              l157 06EA                              l460 079C  
                            l473 073D                              u320 05AE                              u400 05BF  
                            u321 05AD                              u401 05BE                              u330 05B2  
                            u410 060F                              u331 05B1                              u411 060E  
                            u340 05DD                              u341 05DC                              u350 05EA  
                            u510 078E                              u430 0743                              u351 05E9  
                            u511 078D                              u431 0742                              u360 05A6  
                            u520 0793                              u440 074E                              u600 072F  
                            u425 05CE                              u361 05A5                              u521 0792  
                            u505 0784                              u441 074D                              u601 072E  
                            u370 0588                              u450 075F                              u610 0734  
                            u530 06F0                              u371 0587                              u451 075E  
                            u611 0733                              u531 06EF                              u380 059C  
                            u540 06FB                              u381 059B                              u541 06FA  
                            u390 05BB                              u470 076F                              u550 0706  
                            u391 05BA                              u471 076E                              u551 0705  
                            u465 0763                              u625 0663                              u490 077E  
                            u570 0716                              u491 077D                              u571 0715  
                            u580 0720                              u485 0770                              u581 071F  
                            u565 070A                              u637 069E                              u495 077A  
                            u647 07F5                              u585 071C                              u595 0725  
                   ___awmod@sign 0076                              wreg 0009              bcd_2_decimal@number 0077  
                 ?_bcd_2_decimal 0070                             l1101 0743                             l1111 0757  
                           l1103 0748                             l1201 057E                             l1121 076B  
                           l1113 0759                             l1105 074A                             l1203 057F  
                           l1051 05D8                             l1211 061B                             l1131 0788  
                           l1123 076F                             l1115 075F                             l1107 074E  
                           l1205 0577                             l1061 05EA                             l1053 05D9  
                           l1045 05A7                             l1213 0637                             l1125 077E  
                           l1117 0762                             l1133 078E                             l1109 0753  
                           l1141 06EB                             l1221 07A9                             l1055 05DD  
                           l1047 05A7                             l1071 0593                             l1135 0793  
                           l1127 0782                             l1119 0767                             l1151 06FB  
                           l1143 06EC                             l1207 063D                             l1231 07F0  
                           l1223 07B4                             l1217 0589                             l1057 05E1  
                           l1049 05AE                             l1081 060A                             l1073 0596  
                           l1065 059D                             l1241 06DF                             l1233 06A6  
                           l1137 0798                             l1129 0783                             l1161 0712  
                           l1153 0700                             l1145 06F0                             l1225 07BF  
                           l1059 05E3                             l1083 0610                             l1067 05A0  
                           l1075 05B4                             l1235 06C5                             l1163 0716  
                           l1155 0706                             l1171 072F                             l1147 06F5  
                           l1227 07CA                             l1219 079E                             l1251 0675  
                           l1243 066A                             l1181 05EF                             l1093 05C4  
                           l1085 0614                             l1069 0582                             l1077 05BF  
                           l1237 06C9                             l1173 0734                             l1165 0720  
                           l1157 0709                             l1149 06F7                             l1229 07ED  
                           l1261 0682                             l1253 0677                             l1245 066D  
                           l1191 05FC                             l1183 05F2                             l1087 0615  
                           l1079 0604                             l1239 06D4                             l1175 0739  
                           l1167 0724                             l1159 070E                             l1271 0693  
                           l1263 0686                             l1255 0678                             l1247 0670  
                           l1193 05FD                             l1185 05F4                             l1089 0618  
                           l1097 073E                             l1169 0729                             l1273 0697  
                           l1265 068A                             l1257 0679                             l1249 0673  
                           l1195 05FF                             l1187 05F7                             l1179 05EC  
                           l1099 073F                             l1275 069B                             l1267 068E  
                           l1259 067E                             l1197 0601                             l1189 05F9  
                           l1269 068F                             l1199 057B                             _LATA 010C  
                           _LATB 010D                             _WPUA 020C                             _WPUB 020D  
                           _main 066A                             fsr1h 0007                             indf1 0001  
                           fsr1l 0006                             btemp 007E                             start 0002  
              ___bmul@multiplier 0073                   write_date@date 007C   __size_of_OSCILLATOR_Initialize 0007  
  __end_of_OSCILLATOR_Initialize 0582                            ?_main 0070                  __end_of___awdiv 079D  
                __end_of___awmod 073E                      i2c_read@ack 0071                  ___awdiv@divisor 0070  
                ___awdiv@counter 0075                            _TRISA 008C                            _TRISB 008D  
                          __read 061A                   _WDT_Initialize 0577                            status 0003  
                          wtemp0 007E                  __initialization 07FD                     __end_of_main 06A5  
               __end_of_i2c_read 061A                 __end_of_i2c_wait 05B3                 __end_of_i2c_stop 0589  
                         ??_main 007D                  ??_bcd_2_decimal 0074           __end_of_WDT_Initialize 057B  
                         ?__read 0070                 ___awdiv@dividend 0072                           _ANSELA 018C  
                         _ANSELB 018D                           _BORCON 0116                     i2c_read@data 0072  
                         _OSCCON 0099                           _WDTCON 0097               __size_of_i2c_start 000A  
             __size_of_i2c_write 0010                           ___bmul 05D7                        ??___awdiv 0074  
                      ??___awmod 0074                 ___awdiv@quotient 0077                  ___awmod@divisor 0070  
                ___awmod@counter 0075               _i2c_repeated_start 0593                  ?_WDT_Initialize 0070  
            ?_i2c_repeated_start 0070                _SYSTEM_Initialize 0589          __end_of__initialization 07FD  
             ?_SYSTEM_Initialize 0070              ___bmul@multiplicand 0070                   __pcstackCOMMON 0070  
            ??_SYSTEM_Initialize 0070                    __end_of__read 063C             ??_i2c_repeated_start 0070  
              __end_of_i2c_start 05A7                __end_of_i2c_write 05C3                   _OPTION_REGbits 0095  
                        ??__read 0078        __end_of_SYSTEM_Initialize 0593                       __read@data 007A  
                      ?_i2c_read 0070                        ?_i2c_wait 0070                        ?_i2c_stop 0070  
             __size_of_read_date 0046                       __pmaintext 066A                          ?___bmul 0070  
                        _APFCON0 011D                          _APFCON1 011E                          _OSCTUNE 0098  
                        _SSP2ADD 021A                          _SSP2BUF 0219                       ??_i2c_read 0070  
                     ??_i2c_wait 0070                       ??_i2c_stop 0070           __size_of_decimal_2_bcd 002E  
                __size_of___bmul 0015                          ___awdiv 073E                          ___awmod 06EB  
                        __ptext1 079D                          __ptext2 063C                          __ptext3 06EB  
                        __ptext4 073E                          __ptext5 06A5                          __ptext6 061A  
                        __ptext7 05B3                          __ptext8 0582                          __ptext9 059D  
          _OSCILLATOR_Initialize 057B                __end_of_read_date 06EB                 ___awmod@dividend 0072  
       ??_PIN_MANAGER_Initialize 0070       __size_of_SYSTEM_Initialize 000A             end_of_initialization 07FD  
                  __read@address 0079                 ??_WDT_Initialize 0070                    _decimal_2_bcd 063C  
                  i2c_write@data 0070            __end_of_bcd_2_decimal 05D7                   __end_of___bmul 05EC  
                     _write_date 079D                   ?_decimal_2_bcd 0070           ?_OSCILLATOR_Initialize 0070  
            start_initialization 07FD  __size_of_PIN_MANAGER_Initialize 0017                        _i2c_start 059D  
                      _i2c_write 05B3                __size_of_i2c_read 0017                __size_of_i2c_wait 000C  
              __size_of_i2c_stop 0007                         ??___bmul 0071      __size_of_i2c_repeated_start 000A  
                      ___latbits 0001                    __pcstackBANK0 0020                       ?_i2c_start 0070  
                     ?_i2c_write 0070           _PIN_MANAGER_Initialize 05EC                         ?___awdiv 0070  
                       ?___awmod 0070                  ??_decimal_2_bcd 0020                      ?_write_date 0070  
                 __size_of__read 0022                        _read_date 06A5                         _SSP2CON1 021D  
                       _SSP2CON2 021E                         _SSP2STAT 021C                      ??_i2c_start 0070  
                    ??_i2c_write 0070                       ?_read_date 0070                         _i2c_read 0603  
                       _i2c_wait 05A7                         _i2c_stop 0582              __size_of_write_date 0060  
        ??_OSCILLATOR_Initialize 0070                 __size_of___awdiv 005F                 __size_of___awmod 0053  
                       __ptext10 0593                         __ptext11 0603                         __ptext12 05A7  
                       __ptext13 05C3                         __ptext14 05D7                         __ptext15 0589  
                       __ptext16 0577                         __ptext17 05EC                         __ptext18 057B  
                   _SSP2CON1bits 021D                     _SSP2CON2bits 021E                    __size_of_main 003B  
         __size_of_bcd_2_decimal 0014                         main@date 0027                     _SSP2STATbits 021C  
                  read_date@date 007C                      ??_read_date 007B          __size_of_WDT_Initialize 0004  
        ?_PIN_MANAGER_Initialize 0070       __end_of_i2c_repeated_start 059D                     ??_write_date 007A  
            decimal_2_bcd@number 0079                    _bcd_2_decimal 05C3   __end_of_PIN_MANAGER_Initialize 0603  
             __end_of_write_date 07FD  
